ARM GAS  /tmp/ccwboCco.s 			page 1


   1              		.cpu cortex-m3
   2              		.arch armv7-m
   3              		.fpu softvfp
   4              		.eabi_attribute 20, 1
   5              		.eabi_attribute 21, 1
   6              		.eabi_attribute 23, 3
   7              		.eabi_attribute 24, 1
   8              		.eabi_attribute 25, 1
   9              		.eabi_attribute 26, 1
  10              		.eabi_attribute 30, 1
  11              		.eabi_attribute 34, 1
  12              		.eabi_attribute 18, 4
  13              		.file	"stm32l1xx_hal_rcc_ex.c"
  14              		.text
  15              	.Ltext0:
  16              		.cfi_sections	.debug_frame
  17              		.file 1 "Drivers/STM32L1xx_HAL_Driver/Src/stm32l1xx_hal_rcc_ex.c"
  18              		.section	.text.HAL_RCCEx_PeriphCLKConfig,"ax",%progbits
  19              		.align	1
  20              		.global	HAL_RCCEx_PeriphCLKConfig
  21              		.syntax unified
  22              		.thumb
  23              		.thumb_func
  25              	HAL_RCCEx_PeriphCLKConfig:
  26              	.LVL0:
  27              	.LFB72:
   1:Drivers/STM32L1xx_HAL_Driver/Src/stm32l1xx_hal_rcc_ex.c **** /**
   2:Drivers/STM32L1xx_HAL_Driver/Src/stm32l1xx_hal_rcc_ex.c ****   ******************************************************************************
   3:Drivers/STM32L1xx_HAL_Driver/Src/stm32l1xx_hal_rcc_ex.c ****   * @file    stm32l1xx_hal_rcc_ex.c
   4:Drivers/STM32L1xx_HAL_Driver/Src/stm32l1xx_hal_rcc_ex.c ****   * @author  MCD Application Team
   5:Drivers/STM32L1xx_HAL_Driver/Src/stm32l1xx_hal_rcc_ex.c ****   * @brief   Extended RCC HAL module driver.
   6:Drivers/STM32L1xx_HAL_Driver/Src/stm32l1xx_hal_rcc_ex.c ****   *          This file provides firmware functions to manage the following
   7:Drivers/STM32L1xx_HAL_Driver/Src/stm32l1xx_hal_rcc_ex.c ****   *          functionalities RCC extension peripheral:
   8:Drivers/STM32L1xx_HAL_Driver/Src/stm32l1xx_hal_rcc_ex.c ****   *           + Extended Peripheral Control functions
   9:Drivers/STM32L1xx_HAL_Driver/Src/stm32l1xx_hal_rcc_ex.c ****   *
  10:Drivers/STM32L1xx_HAL_Driver/Src/stm32l1xx_hal_rcc_ex.c ****   ******************************************************************************
  11:Drivers/STM32L1xx_HAL_Driver/Src/stm32l1xx_hal_rcc_ex.c ****   * @attention
  12:Drivers/STM32L1xx_HAL_Driver/Src/stm32l1xx_hal_rcc_ex.c ****   *
  13:Drivers/STM32L1xx_HAL_Driver/Src/stm32l1xx_hal_rcc_ex.c ****   * Copyright (c) 2017 STMicroelectronics.
  14:Drivers/STM32L1xx_HAL_Driver/Src/stm32l1xx_hal_rcc_ex.c ****   * All rights reserved.
  15:Drivers/STM32L1xx_HAL_Driver/Src/stm32l1xx_hal_rcc_ex.c ****   *
  16:Drivers/STM32L1xx_HAL_Driver/Src/stm32l1xx_hal_rcc_ex.c ****   * This software is licensed under terms that can be found in the LICENSE file in
  17:Drivers/STM32L1xx_HAL_Driver/Src/stm32l1xx_hal_rcc_ex.c ****   * the root directory of this software component.
  18:Drivers/STM32L1xx_HAL_Driver/Src/stm32l1xx_hal_rcc_ex.c ****   * If no LICENSE file comes with this software, it is provided AS-IS.
  19:Drivers/STM32L1xx_HAL_Driver/Src/stm32l1xx_hal_rcc_ex.c ****   ******************************************************************************
  20:Drivers/STM32L1xx_HAL_Driver/Src/stm32l1xx_hal_rcc_ex.c ****   */
  21:Drivers/STM32L1xx_HAL_Driver/Src/stm32l1xx_hal_rcc_ex.c **** 
  22:Drivers/STM32L1xx_HAL_Driver/Src/stm32l1xx_hal_rcc_ex.c **** /* Includes ------------------------------------------------------------------*/
  23:Drivers/STM32L1xx_HAL_Driver/Src/stm32l1xx_hal_rcc_ex.c **** #include "stm32l1xx_hal.h"
  24:Drivers/STM32L1xx_HAL_Driver/Src/stm32l1xx_hal_rcc_ex.c **** 
  25:Drivers/STM32L1xx_HAL_Driver/Src/stm32l1xx_hal_rcc_ex.c **** /** @addtogroup STM32L1xx_HAL_Driver
  26:Drivers/STM32L1xx_HAL_Driver/Src/stm32l1xx_hal_rcc_ex.c ****   * @{
  27:Drivers/STM32L1xx_HAL_Driver/Src/stm32l1xx_hal_rcc_ex.c ****   */
  28:Drivers/STM32L1xx_HAL_Driver/Src/stm32l1xx_hal_rcc_ex.c **** 
  29:Drivers/STM32L1xx_HAL_Driver/Src/stm32l1xx_hal_rcc_ex.c **** #ifdef HAL_RCC_MODULE_ENABLED
  30:Drivers/STM32L1xx_HAL_Driver/Src/stm32l1xx_hal_rcc_ex.c **** 
  31:Drivers/STM32L1xx_HAL_Driver/Src/stm32l1xx_hal_rcc_ex.c **** /** @defgroup RCCEx RCCEx
ARM GAS  /tmp/ccwboCco.s 			page 2


  32:Drivers/STM32L1xx_HAL_Driver/Src/stm32l1xx_hal_rcc_ex.c ****   * @brief RCC Extension HAL module driver
  33:Drivers/STM32L1xx_HAL_Driver/Src/stm32l1xx_hal_rcc_ex.c ****   * @{
  34:Drivers/STM32L1xx_HAL_Driver/Src/stm32l1xx_hal_rcc_ex.c ****   */
  35:Drivers/STM32L1xx_HAL_Driver/Src/stm32l1xx_hal_rcc_ex.c **** 
  36:Drivers/STM32L1xx_HAL_Driver/Src/stm32l1xx_hal_rcc_ex.c **** /* Private typedef -----------------------------------------------------------*/
  37:Drivers/STM32L1xx_HAL_Driver/Src/stm32l1xx_hal_rcc_ex.c **** /* Private define ------------------------------------------------------------*/
  38:Drivers/STM32L1xx_HAL_Driver/Src/stm32l1xx_hal_rcc_ex.c **** /** @defgroup RCCEx_Private_Constants RCCEx Private Constants
  39:Drivers/STM32L1xx_HAL_Driver/Src/stm32l1xx_hal_rcc_ex.c ****   * @{
  40:Drivers/STM32L1xx_HAL_Driver/Src/stm32l1xx_hal_rcc_ex.c ****   */
  41:Drivers/STM32L1xx_HAL_Driver/Src/stm32l1xx_hal_rcc_ex.c **** /**
  42:Drivers/STM32L1xx_HAL_Driver/Src/stm32l1xx_hal_rcc_ex.c ****   * @}
  43:Drivers/STM32L1xx_HAL_Driver/Src/stm32l1xx_hal_rcc_ex.c ****   */
  44:Drivers/STM32L1xx_HAL_Driver/Src/stm32l1xx_hal_rcc_ex.c **** 
  45:Drivers/STM32L1xx_HAL_Driver/Src/stm32l1xx_hal_rcc_ex.c **** /* Private macro -------------------------------------------------------------*/
  46:Drivers/STM32L1xx_HAL_Driver/Src/stm32l1xx_hal_rcc_ex.c **** /** @defgroup RCCEx_Private_Macros RCCEx Private Macros
  47:Drivers/STM32L1xx_HAL_Driver/Src/stm32l1xx_hal_rcc_ex.c ****   * @{
  48:Drivers/STM32L1xx_HAL_Driver/Src/stm32l1xx_hal_rcc_ex.c ****   */
  49:Drivers/STM32L1xx_HAL_Driver/Src/stm32l1xx_hal_rcc_ex.c **** /**
  50:Drivers/STM32L1xx_HAL_Driver/Src/stm32l1xx_hal_rcc_ex.c ****   * @}
  51:Drivers/STM32L1xx_HAL_Driver/Src/stm32l1xx_hal_rcc_ex.c ****   */
  52:Drivers/STM32L1xx_HAL_Driver/Src/stm32l1xx_hal_rcc_ex.c **** 
  53:Drivers/STM32L1xx_HAL_Driver/Src/stm32l1xx_hal_rcc_ex.c **** /* Private variables ---------------------------------------------------------*/
  54:Drivers/STM32L1xx_HAL_Driver/Src/stm32l1xx_hal_rcc_ex.c **** /* Private function prototypes -----------------------------------------------*/
  55:Drivers/STM32L1xx_HAL_Driver/Src/stm32l1xx_hal_rcc_ex.c **** /* Private functions ---------------------------------------------------------*/
  56:Drivers/STM32L1xx_HAL_Driver/Src/stm32l1xx_hal_rcc_ex.c **** 
  57:Drivers/STM32L1xx_HAL_Driver/Src/stm32l1xx_hal_rcc_ex.c **** /** @defgroup RCCEx_Exported_Functions RCCEx Exported Functions
  58:Drivers/STM32L1xx_HAL_Driver/Src/stm32l1xx_hal_rcc_ex.c ****   * @{
  59:Drivers/STM32L1xx_HAL_Driver/Src/stm32l1xx_hal_rcc_ex.c ****   */
  60:Drivers/STM32L1xx_HAL_Driver/Src/stm32l1xx_hal_rcc_ex.c **** 
  61:Drivers/STM32L1xx_HAL_Driver/Src/stm32l1xx_hal_rcc_ex.c **** /** @defgroup RCCEx_Exported_Functions_Group1 Extended Peripheral Control functions
  62:Drivers/STM32L1xx_HAL_Driver/Src/stm32l1xx_hal_rcc_ex.c ****  *  @brief  Extended Peripheral Control functions
  63:Drivers/STM32L1xx_HAL_Driver/Src/stm32l1xx_hal_rcc_ex.c ****  *
  64:Drivers/STM32L1xx_HAL_Driver/Src/stm32l1xx_hal_rcc_ex.c **** @verbatim
  65:Drivers/STM32L1xx_HAL_Driver/Src/stm32l1xx_hal_rcc_ex.c ****  ===============================================================================
  66:Drivers/STM32L1xx_HAL_Driver/Src/stm32l1xx_hal_rcc_ex.c ****                 ##### Extended Peripheral Control functions  #####
  67:Drivers/STM32L1xx_HAL_Driver/Src/stm32l1xx_hal_rcc_ex.c ****  ===============================================================================
  68:Drivers/STM32L1xx_HAL_Driver/Src/stm32l1xx_hal_rcc_ex.c ****     [..]
  69:Drivers/STM32L1xx_HAL_Driver/Src/stm32l1xx_hal_rcc_ex.c ****     This subsection provides a set of functions allowing to control the RCC Clocks
  70:Drivers/STM32L1xx_HAL_Driver/Src/stm32l1xx_hal_rcc_ex.c ****     frequencies.
  71:Drivers/STM32L1xx_HAL_Driver/Src/stm32l1xx_hal_rcc_ex.c ****     [..]
  72:Drivers/STM32L1xx_HAL_Driver/Src/stm32l1xx_hal_rcc_ex.c ****     (@) Important note: Care must be taken when HAL_RCCEx_PeriphCLKConfig() is used to
  73:Drivers/STM32L1xx_HAL_Driver/Src/stm32l1xx_hal_rcc_ex.c ****         select the RTC clock source; in this case the Backup domain will be reset in
  74:Drivers/STM32L1xx_HAL_Driver/Src/stm32l1xx_hal_rcc_ex.c ****         order to modify the RTC Clock source, as consequence RTC registers (including
  75:Drivers/STM32L1xx_HAL_Driver/Src/stm32l1xx_hal_rcc_ex.c ****         the backup registers) are set to their reset values.
  76:Drivers/STM32L1xx_HAL_Driver/Src/stm32l1xx_hal_rcc_ex.c **** 
  77:Drivers/STM32L1xx_HAL_Driver/Src/stm32l1xx_hal_rcc_ex.c **** @endverbatim
  78:Drivers/STM32L1xx_HAL_Driver/Src/stm32l1xx_hal_rcc_ex.c ****   * @{
  79:Drivers/STM32L1xx_HAL_Driver/Src/stm32l1xx_hal_rcc_ex.c ****   */
  80:Drivers/STM32L1xx_HAL_Driver/Src/stm32l1xx_hal_rcc_ex.c **** 
  81:Drivers/STM32L1xx_HAL_Driver/Src/stm32l1xx_hal_rcc_ex.c **** /**
  82:Drivers/STM32L1xx_HAL_Driver/Src/stm32l1xx_hal_rcc_ex.c ****   * @brief  Initializes the RCC extended peripherals clocks according to the specified
  83:Drivers/STM32L1xx_HAL_Driver/Src/stm32l1xx_hal_rcc_ex.c ****   *         parameters in the RCC_PeriphCLKInitTypeDef.
  84:Drivers/STM32L1xx_HAL_Driver/Src/stm32l1xx_hal_rcc_ex.c ****   * @param  PeriphClkInit pointer to an RCC_PeriphCLKInitTypeDef structure that
  85:Drivers/STM32L1xx_HAL_Driver/Src/stm32l1xx_hal_rcc_ex.c ****   *         contains the configuration information for the Extended Peripherals clocks(RTC/LCD cloc
  86:Drivers/STM32L1xx_HAL_Driver/Src/stm32l1xx_hal_rcc_ex.c ****   * @retval HAL status
  87:Drivers/STM32L1xx_HAL_Driver/Src/stm32l1xx_hal_rcc_ex.c ****   * @note   If HAL_ERROR returned, first switch-OFF HSE clock oscillator with @ref HAL_RCC_OscConfi
  88:Drivers/STM32L1xx_HAL_Driver/Src/stm32l1xx_hal_rcc_ex.c ****   *         to possibly update HSE divider.
ARM GAS  /tmp/ccwboCco.s 			page 3


  89:Drivers/STM32L1xx_HAL_Driver/Src/stm32l1xx_hal_rcc_ex.c ****   */
  90:Drivers/STM32L1xx_HAL_Driver/Src/stm32l1xx_hal_rcc_ex.c **** HAL_StatusTypeDef HAL_RCCEx_PeriphCLKConfig(RCC_PeriphCLKInitTypeDef  *PeriphClkInit)
  91:Drivers/STM32L1xx_HAL_Driver/Src/stm32l1xx_hal_rcc_ex.c **** {
  28              		.loc 1 91 1 view -0
  29              		.cfi_startproc
  30              		@ args = 0, pretend = 0, frame = 8
  31              		@ frame_needed = 0, uses_anonymous_args = 0
  32              		.loc 1 91 1 is_stmt 0 view .LVU1
  33 0000 70B5     		push	{r4, r5, r6, lr}
  34              	.LCFI0:
  35              		.cfi_def_cfa_offset 16
  36              		.cfi_offset 4, -16
  37              		.cfi_offset 5, -12
  38              		.cfi_offset 6, -8
  39              		.cfi_offset 14, -4
  40 0002 82B0     		sub	sp, sp, #8
  41              	.LCFI1:
  42              		.cfi_def_cfa_offset 24
  92:Drivers/STM32L1xx_HAL_Driver/Src/stm32l1xx_hal_rcc_ex.c ****   uint32_t tickstart;
  43              		.loc 1 92 3 is_stmt 1 view .LVU2
  93:Drivers/STM32L1xx_HAL_Driver/Src/stm32l1xx_hal_rcc_ex.c ****   uint32_t temp_reg;
  44              		.loc 1 93 3 view .LVU3
  94:Drivers/STM32L1xx_HAL_Driver/Src/stm32l1xx_hal_rcc_ex.c **** 
  95:Drivers/STM32L1xx_HAL_Driver/Src/stm32l1xx_hal_rcc_ex.c ****   /* Check the parameters */
  96:Drivers/STM32L1xx_HAL_Driver/Src/stm32l1xx_hal_rcc_ex.c ****   assert_param(IS_RCC_PERIPHCLOCK(PeriphClkInit->PeriphClockSelection));
  45              		.loc 1 96 3 view .LVU4
  97:Drivers/STM32L1xx_HAL_Driver/Src/stm32l1xx_hal_rcc_ex.c **** 
  98:Drivers/STM32L1xx_HAL_Driver/Src/stm32l1xx_hal_rcc_ex.c ****   /*------------------------------- RTC/LCD Configuration ------------------------*/
  99:Drivers/STM32L1xx_HAL_Driver/Src/stm32l1xx_hal_rcc_ex.c ****   if ((((PeriphClkInit->PeriphClockSelection) & RCC_PERIPHCLK_RTC) == RCC_PERIPHCLK_RTC)
  46              		.loc 1 99 3 view .LVU5
 100:Drivers/STM32L1xx_HAL_Driver/Src/stm32l1xx_hal_rcc_ex.c **** #if defined(LCD)
 101:Drivers/STM32L1xx_HAL_Driver/Src/stm32l1xx_hal_rcc_ex.c ****    || (((PeriphClkInit->PeriphClockSelection) & RCC_PERIPHCLK_LCD) == RCC_PERIPHCLK_LCD)
  47              		.loc 1 101 4 is_stmt 0 view .LVU6
  48 0004 0368     		ldr	r3, [r0]
  99:Drivers/STM32L1xx_HAL_Driver/Src/stm32l1xx_hal_rcc_ex.c **** #if defined(LCD)
  49              		.loc 1 99 6 view .LVU7
  50 0006 13F0030F 		tst	r3, #3
  51 000a 00F0BA80 		beq	.L18
  52 000e 0446     		mov	r4, r0
  53              	.LBB2:
 102:Drivers/STM32L1xx_HAL_Driver/Src/stm32l1xx_hal_rcc_ex.c **** #endif /* LCD */
 103:Drivers/STM32L1xx_HAL_Driver/Src/stm32l1xx_hal_rcc_ex.c ****      )
 104:Drivers/STM32L1xx_HAL_Driver/Src/stm32l1xx_hal_rcc_ex.c ****   {
 105:Drivers/STM32L1xx_HAL_Driver/Src/stm32l1xx_hal_rcc_ex.c ****     /* check for RTC Parameters used to output RTCCLK */
 106:Drivers/STM32L1xx_HAL_Driver/Src/stm32l1xx_hal_rcc_ex.c ****     if(((PeriphClkInit->PeriphClockSelection) & RCC_PERIPHCLK_RTC) == RCC_PERIPHCLK_RTC)
  54              		.loc 1 106 5 is_stmt 1 view .LVU8
 107:Drivers/STM32L1xx_HAL_Driver/Src/stm32l1xx_hal_rcc_ex.c ****     {
 108:Drivers/STM32L1xx_HAL_Driver/Src/stm32l1xx_hal_rcc_ex.c ****       assert_param(IS_RCC_RTCCLKSOURCE(PeriphClkInit->RTCClockSelection));
  55              		.loc 1 108 7 view .LVU9
 109:Drivers/STM32L1xx_HAL_Driver/Src/stm32l1xx_hal_rcc_ex.c ****     }
 110:Drivers/STM32L1xx_HAL_Driver/Src/stm32l1xx_hal_rcc_ex.c **** 
 111:Drivers/STM32L1xx_HAL_Driver/Src/stm32l1xx_hal_rcc_ex.c **** #if defined(LCD)
 112:Drivers/STM32L1xx_HAL_Driver/Src/stm32l1xx_hal_rcc_ex.c ****     if(((PeriphClkInit->PeriphClockSelection) & RCC_PERIPHCLK_LCD) == RCC_PERIPHCLK_LCD)
  56              		.loc 1 112 5 view .LVU10
 113:Drivers/STM32L1xx_HAL_Driver/Src/stm32l1xx_hal_rcc_ex.c ****     {
 114:Drivers/STM32L1xx_HAL_Driver/Src/stm32l1xx_hal_rcc_ex.c ****       assert_param(IS_RCC_RTCCLKSOURCE(PeriphClkInit->LCDClockSelection));
  57              		.loc 1 114 7 view .LVU11
ARM GAS  /tmp/ccwboCco.s 			page 4


 115:Drivers/STM32L1xx_HAL_Driver/Src/stm32l1xx_hal_rcc_ex.c ****     }
 116:Drivers/STM32L1xx_HAL_Driver/Src/stm32l1xx_hal_rcc_ex.c **** #endif /* LCD */
 117:Drivers/STM32L1xx_HAL_Driver/Src/stm32l1xx_hal_rcc_ex.c **** 
 118:Drivers/STM32L1xx_HAL_Driver/Src/stm32l1xx_hal_rcc_ex.c ****     FlagStatus       pwrclkchanged = RESET;
  58              		.loc 1 118 5 view .LVU12
  59              	.LVL1:
 119:Drivers/STM32L1xx_HAL_Driver/Src/stm32l1xx_hal_rcc_ex.c **** 
 120:Drivers/STM32L1xx_HAL_Driver/Src/stm32l1xx_hal_rcc_ex.c ****     /* As soon as function is called to change RTC clock source, activation of the
 121:Drivers/STM32L1xx_HAL_Driver/Src/stm32l1xx_hal_rcc_ex.c ****        power domain is done. */
 122:Drivers/STM32L1xx_HAL_Driver/Src/stm32l1xx_hal_rcc_ex.c ****     /* Requires to enable write access to Backup Domain of necessary */
 123:Drivers/STM32L1xx_HAL_Driver/Src/stm32l1xx_hal_rcc_ex.c ****     if(__HAL_RCC_PWR_IS_CLK_DISABLED())
  60              		.loc 1 123 5 view .LVU13
  61              		.loc 1 123 8 is_stmt 0 view .LVU14
  62 0010 5E4B     		ldr	r3, .L30
  63 0012 5B6A     		ldr	r3, [r3, #36]
  64              		.loc 1 123 7 view .LVU15
  65 0014 13F0805F 		tst	r3, #268435456
  66 0018 6DD1     		bne	.L19
 124:Drivers/STM32L1xx_HAL_Driver/Src/stm32l1xx_hal_rcc_ex.c ****     {
 125:Drivers/STM32L1xx_HAL_Driver/Src/stm32l1xx_hal_rcc_ex.c ****       __HAL_RCC_PWR_CLK_ENABLE();
  67              		.loc 1 125 7 is_stmt 1 view .LVU16
  68              	.LBB3:
  69              		.loc 1 125 7 view .LVU17
  70              		.loc 1 125 7 view .LVU18
  71 001a 5C4B     		ldr	r3, .L30
  72 001c 5A6A     		ldr	r2, [r3, #36]
  73 001e 42F08052 		orr	r2, r2, #268435456
  74 0022 5A62     		str	r2, [r3, #36]
  75              		.loc 1 125 7 view .LVU19
  76 0024 5B6A     		ldr	r3, [r3, #36]
  77 0026 03F08053 		and	r3, r3, #268435456
  78 002a 0193     		str	r3, [sp, #4]
  79              		.loc 1 125 7 view .LVU20
  80 002c 019B     		ldr	r3, [sp, #4]
  81              	.LBE3:
  82              		.loc 1 125 7 view .LVU21
 126:Drivers/STM32L1xx_HAL_Driver/Src/stm32l1xx_hal_rcc_ex.c ****       pwrclkchanged = SET;
  83              		.loc 1 126 7 view .LVU22
  84              	.LVL2:
  85              		.loc 1 126 21 is_stmt 0 view .LVU23
  86 002e 0125     		movs	r5, #1
  87              	.LVL3:
  88              	.L3:
 127:Drivers/STM32L1xx_HAL_Driver/Src/stm32l1xx_hal_rcc_ex.c ****     }
 128:Drivers/STM32L1xx_HAL_Driver/Src/stm32l1xx_hal_rcc_ex.c **** 
 129:Drivers/STM32L1xx_HAL_Driver/Src/stm32l1xx_hal_rcc_ex.c ****     if(HAL_IS_BIT_CLR(PWR->CR, PWR_CR_DBP))
  89              		.loc 1 129 5 is_stmt 1 view .LVU24
  90              		.loc 1 129 8 is_stmt 0 view .LVU25
  91 0030 574B     		ldr	r3, .L30+4
  92 0032 1B68     		ldr	r3, [r3]
  93              		.loc 1 129 7 view .LVU26
  94 0034 13F4807F 		tst	r3, #256
  95 0038 5FD0     		beq	.L24
  96              	.LVL4:
  97              	.L4:
 130:Drivers/STM32L1xx_HAL_Driver/Src/stm32l1xx_hal_rcc_ex.c ****     {
 131:Drivers/STM32L1xx_HAL_Driver/Src/stm32l1xx_hal_rcc_ex.c ****       /* Enable write access to Backup domain */
ARM GAS  /tmp/ccwboCco.s 			page 5


 132:Drivers/STM32L1xx_HAL_Driver/Src/stm32l1xx_hal_rcc_ex.c ****       SET_BIT(PWR->CR, PWR_CR_DBP);
 133:Drivers/STM32L1xx_HAL_Driver/Src/stm32l1xx_hal_rcc_ex.c **** 
 134:Drivers/STM32L1xx_HAL_Driver/Src/stm32l1xx_hal_rcc_ex.c ****       /* Wait for Backup domain Write protection disable */
 135:Drivers/STM32L1xx_HAL_Driver/Src/stm32l1xx_hal_rcc_ex.c ****       tickstart = HAL_GetTick();
 136:Drivers/STM32L1xx_HAL_Driver/Src/stm32l1xx_hal_rcc_ex.c **** 
 137:Drivers/STM32L1xx_HAL_Driver/Src/stm32l1xx_hal_rcc_ex.c ****       while(HAL_IS_BIT_CLR(PWR->CR, PWR_CR_DBP))
 138:Drivers/STM32L1xx_HAL_Driver/Src/stm32l1xx_hal_rcc_ex.c ****       {
 139:Drivers/STM32L1xx_HAL_Driver/Src/stm32l1xx_hal_rcc_ex.c ****         if((HAL_GetTick() - tickstart) > RCC_DBP_TIMEOUT_VALUE)
 140:Drivers/STM32L1xx_HAL_Driver/Src/stm32l1xx_hal_rcc_ex.c ****         {
 141:Drivers/STM32L1xx_HAL_Driver/Src/stm32l1xx_hal_rcc_ex.c ****           return HAL_TIMEOUT;
 142:Drivers/STM32L1xx_HAL_Driver/Src/stm32l1xx_hal_rcc_ex.c ****         }
 143:Drivers/STM32L1xx_HAL_Driver/Src/stm32l1xx_hal_rcc_ex.c ****       }
 144:Drivers/STM32L1xx_HAL_Driver/Src/stm32l1xx_hal_rcc_ex.c ****     }
 145:Drivers/STM32L1xx_HAL_Driver/Src/stm32l1xx_hal_rcc_ex.c **** 
 146:Drivers/STM32L1xx_HAL_Driver/Src/stm32l1xx_hal_rcc_ex.c ****     /* Check if user wants to change HSE RTC prescaler whereas HSE is enabled */
 147:Drivers/STM32L1xx_HAL_Driver/Src/stm32l1xx_hal_rcc_ex.c ****     temp_reg = (RCC->CR & RCC_CR_RTCPRE);
  98              		.loc 1 147 5 is_stmt 1 view .LVU27
  99              		.loc 1 147 20 is_stmt 0 view .LVU28
 100 003a 544B     		ldr	r3, .L30
 101 003c 1B68     		ldr	r3, [r3]
 102              		.loc 1 147 14 view .LVU29
 103 003e 03F0C043 		and	r3, r3, #1610612736
 104              	.LVL5:
 148:Drivers/STM32L1xx_HAL_Driver/Src/stm32l1xx_hal_rcc_ex.c ****     if ((temp_reg != (PeriphClkInit->RTCClockSelection & RCC_CR_RTCPRE))
 105              		.loc 1 148 5 is_stmt 1 view .LVU30
 106              		.loc 1 148 36 is_stmt 0 view .LVU31
 107 0042 6268     		ldr	r2, [r4, #4]
 108              		.loc 1 148 56 view .LVU32
 109 0044 02F0C041 		and	r1, r2, #1610612736
 110              		.loc 1 148 8 view .LVU33
 111 0048 9942     		cmp	r1, r3
 112 004a 6AD0     		beq	.L25
 113              	.L7:
 149:Drivers/STM32L1xx_HAL_Driver/Src/stm32l1xx_hal_rcc_ex.c **** #if defined (LCD)
 150:Drivers/STM32L1xx_HAL_Driver/Src/stm32l1xx_hal_rcc_ex.c ****      || (temp_reg != (PeriphClkInit->LCDClockSelection & RCC_CR_RTCPRE))
 151:Drivers/STM32L1xx_HAL_Driver/Src/stm32l1xx_hal_rcc_ex.c **** #endif /* LCD */
 152:Drivers/STM32L1xx_HAL_Driver/Src/stm32l1xx_hal_rcc_ex.c ****        )
 153:Drivers/STM32L1xx_HAL_Driver/Src/stm32l1xx_hal_rcc_ex.c ****     { /* Check HSE State */
 154:Drivers/STM32L1xx_HAL_Driver/Src/stm32l1xx_hal_rcc_ex.c ****       if ((PeriphClkInit->RTCClockSelection & RCC_CSR_RTCSEL) == RCC_CSR_RTCSEL_HSE)
 114              		.loc 1 154 7 is_stmt 1 view .LVU34
 115              		.loc 1 154 45 is_stmt 0 view .LVU35
 116 004c 02F44033 		and	r3, r2, #196608
 117              	.LVL6:
 118              		.loc 1 154 10 view .LVU36
 119 0050 B3F5403F 		cmp	r3, #196608
 120 0054 6BD0     		beq	.L26
 121              	.L8:
 155:Drivers/STM32L1xx_HAL_Driver/Src/stm32l1xx_hal_rcc_ex.c ****       {
 156:Drivers/STM32L1xx_HAL_Driver/Src/stm32l1xx_hal_rcc_ex.c ****         if (HAL_IS_BIT_SET(RCC->CR, RCC_CR_HSERDY))
 157:Drivers/STM32L1xx_HAL_Driver/Src/stm32l1xx_hal_rcc_ex.c ****         {
 158:Drivers/STM32L1xx_HAL_Driver/Src/stm32l1xx_hal_rcc_ex.c ****           /* To update HSE divider, first switch-OFF HSE clock oscillator*/
 159:Drivers/STM32L1xx_HAL_Driver/Src/stm32l1xx_hal_rcc_ex.c ****           return HAL_ERROR;
 160:Drivers/STM32L1xx_HAL_Driver/Src/stm32l1xx_hal_rcc_ex.c ****         }
 161:Drivers/STM32L1xx_HAL_Driver/Src/stm32l1xx_hal_rcc_ex.c ****       }
 162:Drivers/STM32L1xx_HAL_Driver/Src/stm32l1xx_hal_rcc_ex.c ****     }
 163:Drivers/STM32L1xx_HAL_Driver/Src/stm32l1xx_hal_rcc_ex.c **** 
 164:Drivers/STM32L1xx_HAL_Driver/Src/stm32l1xx_hal_rcc_ex.c ****     /* Reset the Backup domain only if the RTC Clock source selection is modified from reset value 
ARM GAS  /tmp/ccwboCco.s 			page 6


 165:Drivers/STM32L1xx_HAL_Driver/Src/stm32l1xx_hal_rcc_ex.c ****     temp_reg = (RCC->CSR & RCC_CSR_RTCSEL);
 122              		.loc 1 165 5 is_stmt 1 view .LVU37
 123              		.loc 1 165 20 is_stmt 0 view .LVU38
 124 0056 4D4B     		ldr	r3, .L30
 125 0058 5B6B     		ldr	r3, [r3, #52]
 126              	.LVL7:
 166:Drivers/STM32L1xx_HAL_Driver/Src/stm32l1xx_hal_rcc_ex.c **** 
 167:Drivers/STM32L1xx_HAL_Driver/Src/stm32l1xx_hal_rcc_ex.c ****     if((temp_reg != 0x00000000U) && (((temp_reg != (PeriphClkInit->RTCClockSelection & RCC_CSR_RTCS
 127              		.loc 1 167 5 is_stmt 1 view .LVU39
 128              		.loc 1 167 7 is_stmt 0 view .LVU40
 129 005a 13F44033 		ands	r3, r3, #196608
 130              	.LVL8:
 131              		.loc 1 167 7 view .LVU41
 132 005e 1FD0     		beq	.L9
 133              		.loc 1 167 86 discriminator 1 view .LVU42
 134 0060 02F44032 		and	r2, r2, #196608
 135              		.loc 1 167 34 discriminator 1 view .LVU43
 136 0064 9A42     		cmp	r2, r3
 137 0066 03D0     		beq	.L10
 168:Drivers/STM32L1xx_HAL_Driver/Src/stm32l1xx_hal_rcc_ex.c ****       && (((PeriphClkInit->PeriphClockSelection) & RCC_PERIPHCLK_RTC) == RCC_PERIPHCLK_RTC))
 138              		.loc 1 168 26 view .LVU44
 139 0068 2268     		ldr	r2, [r4]
 140              		.loc 1 168 7 view .LVU45
 141 006a 12F0010F 		tst	r2, #1
 142 006e 08D1     		bne	.L11
 143              	.L10:
 169:Drivers/STM32L1xx_HAL_Driver/Src/stm32l1xx_hal_rcc_ex.c **** #if defined(LCD)
 170:Drivers/STM32L1xx_HAL_Driver/Src/stm32l1xx_hal_rcc_ex.c ****       || ((temp_reg != (PeriphClkInit->LCDClockSelection & RCC_CSR_RTCSEL)) \
 144              		.loc 1 170 38 view .LVU46
 145 0070 A268     		ldr	r2, [r4, #8]
 146              		.loc 1 170 58 view .LVU47
 147 0072 02F44032 		and	r2, r2, #196608
 148              		.loc 1 170 7 view .LVU48
 149 0076 9A42     		cmp	r2, r3
 150 0078 12D0     		beq	.L9
 171:Drivers/STM32L1xx_HAL_Driver/Src/stm32l1xx_hal_rcc_ex.c ****        && (((PeriphClkInit->PeriphClockSelection) & RCC_PERIPHCLK_LCD) == RCC_PERIPHCLK_LCD))
 151              		.loc 1 171 27 view .LVU49
 152 007a 2368     		ldr	r3, [r4]
 153              	.LVL9:
 154              		.loc 1 171 8 view .LVU50
 155 007c 13F0020F 		tst	r3, #2
 156 0080 0ED0     		beq	.L9
 157              	.L11:
 172:Drivers/STM32L1xx_HAL_Driver/Src/stm32l1xx_hal_rcc_ex.c **** #endif /* LCD */
 173:Drivers/STM32L1xx_HAL_Driver/Src/stm32l1xx_hal_rcc_ex.c ****      ))
 174:Drivers/STM32L1xx_HAL_Driver/Src/stm32l1xx_hal_rcc_ex.c ****     {
 175:Drivers/STM32L1xx_HAL_Driver/Src/stm32l1xx_hal_rcc_ex.c ****       /* Store the content of CSR register before the reset of Backup Domain */
 176:Drivers/STM32L1xx_HAL_Driver/Src/stm32l1xx_hal_rcc_ex.c ****       temp_reg = (RCC->CSR & ~(RCC_CSR_RTCSEL));
 158              		.loc 1 176 7 is_stmt 1 view .LVU51
 159              		.loc 1 176 22 is_stmt 0 view .LVU52
 160 0082 424A     		ldr	r2, .L30
 161 0084 536B     		ldr	r3, [r2, #52]
 162              		.loc 1 176 16 view .LVU53
 163 0086 23F44030 		bic	r0, r3, #196608
 164              	.LVL10:
 177:Drivers/STM32L1xx_HAL_Driver/Src/stm32l1xx_hal_rcc_ex.c **** 
 178:Drivers/STM32L1xx_HAL_Driver/Src/stm32l1xx_hal_rcc_ex.c ****       /* RTC Clock selection can be changed only if the Backup Domain is reset */
ARM GAS  /tmp/ccwboCco.s 			page 7


 179:Drivers/STM32L1xx_HAL_Driver/Src/stm32l1xx_hal_rcc_ex.c ****       __HAL_RCC_BACKUPRESET_FORCE();
 165              		.loc 1 179 7 is_stmt 1 view .LVU54
 166 008a 4249     		ldr	r1, .L30+8
 167 008c 0126     		movs	r6, #1
 168 008e C1F8DC66 		str	r6, [r1, #1756]
 180:Drivers/STM32L1xx_HAL_Driver/Src/stm32l1xx_hal_rcc_ex.c ****       __HAL_RCC_BACKUPRESET_RELEASE();
 169              		.loc 1 180 7 view .LVU55
 170 0092 0026     		movs	r6, #0
 171 0094 C1F8DC66 		str	r6, [r1, #1756]
 181:Drivers/STM32L1xx_HAL_Driver/Src/stm32l1xx_hal_rcc_ex.c **** 
 182:Drivers/STM32L1xx_HAL_Driver/Src/stm32l1xx_hal_rcc_ex.c ****       /* Restore the Content of CSR register */
 183:Drivers/STM32L1xx_HAL_Driver/Src/stm32l1xx_hal_rcc_ex.c ****       RCC->CSR = temp_reg;
 172              		.loc 1 183 7 view .LVU56
 173              		.loc 1 183 16 is_stmt 0 view .LVU57
 174 0098 5063     		str	r0, [r2, #52]
 184:Drivers/STM32L1xx_HAL_Driver/Src/stm32l1xx_hal_rcc_ex.c **** 
 185:Drivers/STM32L1xx_HAL_Driver/Src/stm32l1xx_hal_rcc_ex.c ****        /* Wait for LSERDY if LSE was enabled */
 186:Drivers/STM32L1xx_HAL_Driver/Src/stm32l1xx_hal_rcc_ex.c ****       if (HAL_IS_BIT_SET(temp_reg, RCC_CSR_LSEON))
 175              		.loc 1 186 7 is_stmt 1 view .LVU58
 176              		.loc 1 186 10 is_stmt 0 view .LVU59
 177 009a 13F4807F 		tst	r3, #256
 178 009e 4DD1     		bne	.L27
 179              	.LVL11:
 180              	.L9:
 187:Drivers/STM32L1xx_HAL_Driver/Src/stm32l1xx_hal_rcc_ex.c ****       {
 188:Drivers/STM32L1xx_HAL_Driver/Src/stm32l1xx_hal_rcc_ex.c ****         /* Get Start Tick */
 189:Drivers/STM32L1xx_HAL_Driver/Src/stm32l1xx_hal_rcc_ex.c ****         tickstart = HAL_GetTick();
 190:Drivers/STM32L1xx_HAL_Driver/Src/stm32l1xx_hal_rcc_ex.c **** 
 191:Drivers/STM32L1xx_HAL_Driver/Src/stm32l1xx_hal_rcc_ex.c ****         /* Wait till LSE is ready */
 192:Drivers/STM32L1xx_HAL_Driver/Src/stm32l1xx_hal_rcc_ex.c ****         while(__HAL_RCC_GET_FLAG(RCC_FLAG_LSERDY) == 0U)
 193:Drivers/STM32L1xx_HAL_Driver/Src/stm32l1xx_hal_rcc_ex.c ****         {
 194:Drivers/STM32L1xx_HAL_Driver/Src/stm32l1xx_hal_rcc_ex.c ****           if((HAL_GetTick() - tickstart ) > RCC_LSE_TIMEOUT_VALUE)
 195:Drivers/STM32L1xx_HAL_Driver/Src/stm32l1xx_hal_rcc_ex.c ****           {
 196:Drivers/STM32L1xx_HAL_Driver/Src/stm32l1xx_hal_rcc_ex.c ****             return HAL_TIMEOUT;
 197:Drivers/STM32L1xx_HAL_Driver/Src/stm32l1xx_hal_rcc_ex.c ****           }
 198:Drivers/STM32L1xx_HAL_Driver/Src/stm32l1xx_hal_rcc_ex.c ****         }
 199:Drivers/STM32L1xx_HAL_Driver/Src/stm32l1xx_hal_rcc_ex.c ****       }
 200:Drivers/STM32L1xx_HAL_Driver/Src/stm32l1xx_hal_rcc_ex.c ****     }
 201:Drivers/STM32L1xx_HAL_Driver/Src/stm32l1xx_hal_rcc_ex.c **** #if defined(LCD)
 202:Drivers/STM32L1xx_HAL_Driver/Src/stm32l1xx_hal_rcc_ex.c ****     if(((PeriphClkInit->PeriphClockSelection) & RCC_PERIPHCLK_LCD) == RCC_PERIPHCLK_LCD)
 181              		.loc 1 202 5 is_stmt 1 view .LVU60
 182              		.loc 1 202 23 is_stmt 0 view .LVU61
 183 00a0 2368     		ldr	r3, [r4]
 184              		.loc 1 202 7 view .LVU62
 185 00a2 13F0020F 		tst	r3, #2
 186 00a6 0CD0     		beq	.L14
 203:Drivers/STM32L1xx_HAL_Driver/Src/stm32l1xx_hal_rcc_ex.c ****     {
 204:Drivers/STM32L1xx_HAL_Driver/Src/stm32l1xx_hal_rcc_ex.c ****       __HAL_RCC_LCD_CONFIG(PeriphClkInit->LCDClockSelection);
 187              		.loc 1 204 7 is_stmt 1 view .LVU63
 188              		.loc 1 204 7 view .LVU64
 189              		.loc 1 204 7 view .LVU65
 190 00a8 A368     		ldr	r3, [r4, #8]
 191 00aa 03F44032 		and	r2, r3, #196608
 192 00ae B2F5403F 		cmp	r2, #196608
 193 00b2 54D0     		beq	.L28
 194              	.L15:
 195              		.loc 1 204 7 discriminator 3 view .LVU66
ARM GAS  /tmp/ccwboCco.s 			page 8


 196              		.loc 1 204 7 discriminator 3 view .LVU67
 197 00b4 3549     		ldr	r1, .L30
 198 00b6 4B6B     		ldr	r3, [r1, #52]
 199 00b8 A268     		ldr	r2, [r4, #8]
 200 00ba 02F44032 		and	r2, r2, #196608
 201 00be 1343     		orrs	r3, r3, r2
 202 00c0 4B63     		str	r3, [r1, #52]
 203              	.L14:
 204              		.loc 1 204 7 discriminator 4 view .LVU68
 205:Drivers/STM32L1xx_HAL_Driver/Src/stm32l1xx_hal_rcc_ex.c ****     } 
 206:Drivers/STM32L1xx_HAL_Driver/Src/stm32l1xx_hal_rcc_ex.c **** #endif /* LCD */
 207:Drivers/STM32L1xx_HAL_Driver/Src/stm32l1xx_hal_rcc_ex.c **** 
 208:Drivers/STM32L1xx_HAL_Driver/Src/stm32l1xx_hal_rcc_ex.c ****     if(((PeriphClkInit->PeriphClockSelection) & RCC_PERIPHCLK_RTC) == RCC_PERIPHCLK_RTC)
 205              		.loc 1 208 5 view .LVU69
 206              		.loc 1 208 23 is_stmt 0 view .LVU70
 207 00c2 2368     		ldr	r3, [r4]
 208              		.loc 1 208 7 view .LVU71
 209 00c4 13F0010F 		tst	r3, #1
 210 00c8 0CD0     		beq	.L16
 209:Drivers/STM32L1xx_HAL_Driver/Src/stm32l1xx_hal_rcc_ex.c ****     {
 210:Drivers/STM32L1xx_HAL_Driver/Src/stm32l1xx_hal_rcc_ex.c ****       __HAL_RCC_RTC_CONFIG(PeriphClkInit->RTCClockSelection);
 211              		.loc 1 210 7 is_stmt 1 view .LVU72
 212              		.loc 1 210 7 view .LVU73
 213              		.loc 1 210 7 view .LVU74
 214 00ca 6368     		ldr	r3, [r4, #4]
 215 00cc 03F44032 		and	r2, r3, #196608
 216 00d0 B2F5403F 		cmp	r2, #196608
 217 00d4 4CD0     		beq	.L29
 218              	.L17:
 219              		.loc 1 210 7 discriminator 3 view .LVU75
 220              		.loc 1 210 7 discriminator 3 view .LVU76
 221 00d6 2D49     		ldr	r1, .L30
 222 00d8 4B6B     		ldr	r3, [r1, #52]
 223 00da 6268     		ldr	r2, [r4, #4]
 224 00dc 02F44032 		and	r2, r2, #196608
 225 00e0 1343     		orrs	r3, r3, r2
 226 00e2 4B63     		str	r3, [r1, #52]
 227              	.L16:
 228              		.loc 1 210 7 discriminator 4 view .LVU77
 211:Drivers/STM32L1xx_HAL_Driver/Src/stm32l1xx_hal_rcc_ex.c ****     }
 212:Drivers/STM32L1xx_HAL_Driver/Src/stm32l1xx_hal_rcc_ex.c **** 
 213:Drivers/STM32L1xx_HAL_Driver/Src/stm32l1xx_hal_rcc_ex.c ****     /* Require to disable power clock if necessary */
 214:Drivers/STM32L1xx_HAL_Driver/Src/stm32l1xx_hal_rcc_ex.c ****     if(pwrclkchanged == SET)
 229              		.loc 1 214 5 view .LVU78
 230              		.loc 1 214 7 is_stmt 0 view .LVU79
 231 00e4 012D     		cmp	r5, #1
 232 00e6 4DD1     		bne	.L2
 215:Drivers/STM32L1xx_HAL_Driver/Src/stm32l1xx_hal_rcc_ex.c ****     {
 216:Drivers/STM32L1xx_HAL_Driver/Src/stm32l1xx_hal_rcc_ex.c ****       __HAL_RCC_PWR_CLK_DISABLE();
 233              		.loc 1 216 7 is_stmt 1 view .LVU80
 234 00e8 284A     		ldr	r2, .L30
 235 00ea 536A     		ldr	r3, [r2, #36]
 236 00ec 23F08053 		bic	r3, r3, #268435456
 237 00f0 5362     		str	r3, [r2, #36]
 238              	.LBE2:
 217:Drivers/STM32L1xx_HAL_Driver/Src/stm32l1xx_hal_rcc_ex.c ****     }
 218:Drivers/STM32L1xx_HAL_Driver/Src/stm32l1xx_hal_rcc_ex.c ****   }
ARM GAS  /tmp/ccwboCco.s 			page 9


 219:Drivers/STM32L1xx_HAL_Driver/Src/stm32l1xx_hal_rcc_ex.c **** 
 220:Drivers/STM32L1xx_HAL_Driver/Src/stm32l1xx_hal_rcc_ex.c ****   return HAL_OK;
 239              		.loc 1 220 10 is_stmt 0 view .LVU81
 240 00f2 0025     		movs	r5, #0
 241              	.LVL12:
 242              		.loc 1 220 10 view .LVU82
 243 00f4 46E0     		b	.L2
 244              	.LVL13:
 245              	.L19:
 246              	.LBB4:
 118:Drivers/STM32L1xx_HAL_Driver/Src/stm32l1xx_hal_rcc_ex.c **** 
 247              		.loc 1 118 22 view .LVU83
 248 00f6 0025     		movs	r5, #0
 249 00f8 9AE7     		b	.L3
 250              	.LVL14:
 251              	.L24:
 132:Drivers/STM32L1xx_HAL_Driver/Src/stm32l1xx_hal_rcc_ex.c **** 
 252              		.loc 1 132 7 is_stmt 1 view .LVU84
 253 00fa 254A     		ldr	r2, .L30+4
 254 00fc 1368     		ldr	r3, [r2]
 255 00fe 43F48073 		orr	r3, r3, #256
 256 0102 1360     		str	r3, [r2]
 135:Drivers/STM32L1xx_HAL_Driver/Src/stm32l1xx_hal_rcc_ex.c **** 
 257              		.loc 1 135 7 view .LVU85
 135:Drivers/STM32L1xx_HAL_Driver/Src/stm32l1xx_hal_rcc_ex.c **** 
 258              		.loc 1 135 19 is_stmt 0 view .LVU86
 259 0104 FFF7FEFF 		bl	HAL_GetTick
 260              	.LVL15:
 135:Drivers/STM32L1xx_HAL_Driver/Src/stm32l1xx_hal_rcc_ex.c **** 
 261              		.loc 1 135 19 view .LVU87
 262 0108 0646     		mov	r6, r0
 263              	.LVL16:
 137:Drivers/STM32L1xx_HAL_Driver/Src/stm32l1xx_hal_rcc_ex.c ****       {
 264              		.loc 1 137 7 is_stmt 1 view .LVU88
 265              	.L5:
 137:Drivers/STM32L1xx_HAL_Driver/Src/stm32l1xx_hal_rcc_ex.c ****       {
 266              		.loc 1 137 13 view .LVU89
 267 010a 214B     		ldr	r3, .L30+4
 268 010c 1B68     		ldr	r3, [r3]
 269 010e 13F4807F 		tst	r3, #256
 270 0112 92D1     		bne	.L4
 139:Drivers/STM32L1xx_HAL_Driver/Src/stm32l1xx_hal_rcc_ex.c ****         {
 271              		.loc 1 139 9 view .LVU90
 139:Drivers/STM32L1xx_HAL_Driver/Src/stm32l1xx_hal_rcc_ex.c ****         {
 272              		.loc 1 139 13 is_stmt 0 view .LVU91
 273 0114 FFF7FEFF 		bl	HAL_GetTick
 274              	.LVL17:
 139:Drivers/STM32L1xx_HAL_Driver/Src/stm32l1xx_hal_rcc_ex.c ****         {
 275              		.loc 1 139 27 discriminator 1 view .LVU92
 276 0118 801B     		subs	r0, r0, r6
 139:Drivers/STM32L1xx_HAL_Driver/Src/stm32l1xx_hal_rcc_ex.c ****         {
 277              		.loc 1 139 11 discriminator 1 view .LVU93
 278 011a 6428     		cmp	r0, #100
 279 011c F5D9     		bls	.L5
 141:Drivers/STM32L1xx_HAL_Driver/Src/stm32l1xx_hal_rcc_ex.c ****         }
 280              		.loc 1 141 18 view .LVU94
 281 011e 0325     		movs	r5, #3
ARM GAS  /tmp/ccwboCco.s 			page 10


 282              	.LVL18:
 141:Drivers/STM32L1xx_HAL_Driver/Src/stm32l1xx_hal_rcc_ex.c ****         }
 283              		.loc 1 141 18 view .LVU95
 284 0120 30E0     		b	.L2
 285              	.LVL19:
 286              	.L25:
 150:Drivers/STM32L1xx_HAL_Driver/Src/stm32l1xx_hal_rcc_ex.c **** #endif /* LCD */
 287              		.loc 1 150 36 view .LVU96
 288 0122 A168     		ldr	r1, [r4, #8]
 150:Drivers/STM32L1xx_HAL_Driver/Src/stm32l1xx_hal_rcc_ex.c **** #endif /* LCD */
 289              		.loc 1 150 56 view .LVU97
 290 0124 01F0C041 		and	r1, r1, #1610612736
 150:Drivers/STM32L1xx_HAL_Driver/Src/stm32l1xx_hal_rcc_ex.c **** #endif /* LCD */
 291              		.loc 1 150 6 view .LVU98
 292 0128 9942     		cmp	r1, r3
 293 012a 8FD1     		bne	.L7
 294 012c 93E7     		b	.L8
 295              	.LVL20:
 296              	.L26:
 156:Drivers/STM32L1xx_HAL_Driver/Src/stm32l1xx_hal_rcc_ex.c ****         {
 297              		.loc 1 156 9 is_stmt 1 view .LVU99
 156:Drivers/STM32L1xx_HAL_Driver/Src/stm32l1xx_hal_rcc_ex.c ****         {
 298              		.loc 1 156 13 is_stmt 0 view .LVU100
 299 012e 174B     		ldr	r3, .L30
 300 0130 1B68     		ldr	r3, [r3]
 156:Drivers/STM32L1xx_HAL_Driver/Src/stm32l1xx_hal_rcc_ex.c ****         {
 301              		.loc 1 156 12 view .LVU101
 302 0132 13F4003F 		tst	r3, #131072
 303 0136 8ED0     		beq	.L8
 159:Drivers/STM32L1xx_HAL_Driver/Src/stm32l1xx_hal_rcc_ex.c ****         }
 304              		.loc 1 159 18 view .LVU102
 305 0138 0125     		movs	r5, #1
 306              	.LVL21:
 159:Drivers/STM32L1xx_HAL_Driver/Src/stm32l1xx_hal_rcc_ex.c ****         }
 307              		.loc 1 159 18 view .LVU103
 308 013a 23E0     		b	.L2
 309              	.LVL22:
 310              	.L27:
 189:Drivers/STM32L1xx_HAL_Driver/Src/stm32l1xx_hal_rcc_ex.c **** 
 311              		.loc 1 189 9 is_stmt 1 view .LVU104
 189:Drivers/STM32L1xx_HAL_Driver/Src/stm32l1xx_hal_rcc_ex.c **** 
 312              		.loc 1 189 21 is_stmt 0 view .LVU105
 313 013c FFF7FEFF 		bl	HAL_GetTick
 314              	.LVL23:
 189:Drivers/STM32L1xx_HAL_Driver/Src/stm32l1xx_hal_rcc_ex.c **** 
 315              		.loc 1 189 21 view .LVU106
 316 0140 0646     		mov	r6, r0
 317              	.LVL24:
 192:Drivers/STM32L1xx_HAL_Driver/Src/stm32l1xx_hal_rcc_ex.c ****         {
 318              		.loc 1 192 9 is_stmt 1 view .LVU107
 319              	.L12:
 192:Drivers/STM32L1xx_HAL_Driver/Src/stm32l1xx_hal_rcc_ex.c ****         {
 320              		.loc 1 192 51 view .LVU108
 192:Drivers/STM32L1xx_HAL_Driver/Src/stm32l1xx_hal_rcc_ex.c ****         {
 321              		.loc 1 192 15 is_stmt 0 view .LVU109
 322 0142 124B     		ldr	r3, .L30
 323 0144 5B6B     		ldr	r3, [r3, #52]
ARM GAS  /tmp/ccwboCco.s 			page 11


 192:Drivers/STM32L1xx_HAL_Driver/Src/stm32l1xx_hal_rcc_ex.c ****         {
 324              		.loc 1 192 51 view .LVU110
 325 0146 13F4007F 		tst	r3, #512
 326 014a A9D1     		bne	.L9
 194:Drivers/STM32L1xx_HAL_Driver/Src/stm32l1xx_hal_rcc_ex.c ****           {
 327              		.loc 1 194 11 is_stmt 1 view .LVU111
 194:Drivers/STM32L1xx_HAL_Driver/Src/stm32l1xx_hal_rcc_ex.c ****           {
 328              		.loc 1 194 15 is_stmt 0 view .LVU112
 329 014c FFF7FEFF 		bl	HAL_GetTick
 330              	.LVL25:
 194:Drivers/STM32L1xx_HAL_Driver/Src/stm32l1xx_hal_rcc_ex.c ****           {
 331              		.loc 1 194 29 discriminator 1 view .LVU113
 332 0150 801B     		subs	r0, r0, r6
 194:Drivers/STM32L1xx_HAL_Driver/Src/stm32l1xx_hal_rcc_ex.c ****           {
 333              		.loc 1 194 13 discriminator 1 view .LVU114
 334 0152 41F28833 		movw	r3, #5000
 335 0156 9842     		cmp	r0, r3
 336 0158 F3D9     		bls	.L12
 196:Drivers/STM32L1xx_HAL_Driver/Src/stm32l1xx_hal_rcc_ex.c ****           }
 337              		.loc 1 196 20 view .LVU115
 338 015a 0325     		movs	r5, #3
 339              	.LVL26:
 196:Drivers/STM32L1xx_HAL_Driver/Src/stm32l1xx_hal_rcc_ex.c ****           }
 340              		.loc 1 196 20 view .LVU116
 341 015c 12E0     		b	.L2
 342              	.LVL27:
 343              	.L28:
 204:Drivers/STM32L1xx_HAL_Driver/Src/stm32l1xx_hal_rcc_ex.c ****     } 
 344              		.loc 1 204 7 is_stmt 1 discriminator 1 view .LVU117
 345 015e 0B49     		ldr	r1, .L30
 346 0160 0A68     		ldr	r2, [r1]
 347 0162 22F0C042 		bic	r2, r2, #1610612736
 348 0166 03F0C043 		and	r3, r3, #1610612736
 349 016a 1343     		orrs	r3, r3, r2
 350 016c 0B60     		str	r3, [r1]
 351 016e A1E7     		b	.L15
 352              	.L29:
 210:Drivers/STM32L1xx_HAL_Driver/Src/stm32l1xx_hal_rcc_ex.c ****     }
 353              		.loc 1 210 7 discriminator 1 view .LVU118
 354 0170 0649     		ldr	r1, .L30
 355 0172 0A68     		ldr	r2, [r1]
 356 0174 22F0C042 		bic	r2, r2, #1610612736
 357 0178 03F0C043 		and	r3, r3, #1610612736
 358 017c 1343     		orrs	r3, r3, r2
 359 017e 0B60     		str	r3, [r1]
 360 0180 A9E7     		b	.L17
 361              	.LVL28:
 362              	.L18:
 210:Drivers/STM32L1xx_HAL_Driver/Src/stm32l1xx_hal_rcc_ex.c ****     }
 363              		.loc 1 210 7 is_stmt 0 discriminator 1 view .LVU119
 364              	.LBE4:
 365              		.loc 1 220 10 view .LVU120
 366 0182 0025     		movs	r5, #0
 367              	.LVL29:
 368              	.L2:
 221:Drivers/STM32L1xx_HAL_Driver/Src/stm32l1xx_hal_rcc_ex.c **** }
 369              		.loc 1 221 1 view .LVU121
ARM GAS  /tmp/ccwboCco.s 			page 12


 370 0184 2846     		mov	r0, r5
 371 0186 02B0     		add	sp, sp, #8
 372              	.LCFI2:
 373              		.cfi_def_cfa_offset 16
 374              		@ sp needed
 375 0188 70BD     		pop	{r4, r5, r6, pc}
 376              	.L31:
 377 018a 00BF     		.align	2
 378              	.L30:
 379 018c 00380240 		.word	1073887232
 380 0190 00700040 		.word	1073770496
 381 0194 00004742 		.word	1111949312
 382              		.cfi_endproc
 383              	.LFE72:
 385              		.section	.text.HAL_RCCEx_GetPeriphCLKConfig,"ax",%progbits
 386              		.align	1
 387              		.global	HAL_RCCEx_GetPeriphCLKConfig
 388              		.syntax unified
 389              		.thumb
 390              		.thumb_func
 392              	HAL_RCCEx_GetPeriphCLKConfig:
 393              	.LVL30:
 394              	.LFB73:
 222:Drivers/STM32L1xx_HAL_Driver/Src/stm32l1xx_hal_rcc_ex.c **** 
 223:Drivers/STM32L1xx_HAL_Driver/Src/stm32l1xx_hal_rcc_ex.c **** /**
 224:Drivers/STM32L1xx_HAL_Driver/Src/stm32l1xx_hal_rcc_ex.c ****   * @brief  Get the PeriphClkInit according to the internal RCC configuration registers.
 225:Drivers/STM32L1xx_HAL_Driver/Src/stm32l1xx_hal_rcc_ex.c ****   * @param  PeriphClkInit pointer to an RCC_PeriphCLKInitTypeDef structure that
 226:Drivers/STM32L1xx_HAL_Driver/Src/stm32l1xx_hal_rcc_ex.c ****   *         returns the configuration information for the Extended Peripherals clocks(RTC/LCD clock
 227:Drivers/STM32L1xx_HAL_Driver/Src/stm32l1xx_hal_rcc_ex.c ****   * @retval None
 228:Drivers/STM32L1xx_HAL_Driver/Src/stm32l1xx_hal_rcc_ex.c ****   */
 229:Drivers/STM32L1xx_HAL_Driver/Src/stm32l1xx_hal_rcc_ex.c **** void HAL_RCCEx_GetPeriphCLKConfig(RCC_PeriphCLKInitTypeDef  *PeriphClkInit)
 230:Drivers/STM32L1xx_HAL_Driver/Src/stm32l1xx_hal_rcc_ex.c **** {
 395              		.loc 1 230 1 is_stmt 1 view -0
 396              		.cfi_startproc
 397              		@ args = 0, pretend = 0, frame = 0
 398              		@ frame_needed = 0, uses_anonymous_args = 0
 399              		@ link register save eliminated.
 231:Drivers/STM32L1xx_HAL_Driver/Src/stm32l1xx_hal_rcc_ex.c ****   uint32_t srcclk;
 400              		.loc 1 231 3 view .LVU123
 232:Drivers/STM32L1xx_HAL_Driver/Src/stm32l1xx_hal_rcc_ex.c **** 
 233:Drivers/STM32L1xx_HAL_Driver/Src/stm32l1xx_hal_rcc_ex.c ****   /* Set all possible values for the extended clock type parameter------------*/
 234:Drivers/STM32L1xx_HAL_Driver/Src/stm32l1xx_hal_rcc_ex.c ****   PeriphClkInit->PeriphClockSelection = RCC_PERIPHCLK_RTC;
 401              		.loc 1 234 3 view .LVU124
 402              		.loc 1 234 39 is_stmt 0 view .LVU125
 403 0000 0123     		movs	r3, #1
 404 0002 0360     		str	r3, [r0]
 235:Drivers/STM32L1xx_HAL_Driver/Src/stm32l1xx_hal_rcc_ex.c **** #if defined(LCD)
 236:Drivers/STM32L1xx_HAL_Driver/Src/stm32l1xx_hal_rcc_ex.c ****   PeriphClkInit->PeriphClockSelection |= RCC_PERIPHCLK_LCD;
 405              		.loc 1 236 3 is_stmt 1 view .LVU126
 406              		.loc 1 236 39 is_stmt 0 view .LVU127
 407 0004 0323     		movs	r3, #3
 408 0006 0360     		str	r3, [r0]
 237:Drivers/STM32L1xx_HAL_Driver/Src/stm32l1xx_hal_rcc_ex.c **** #endif /* LCD */
 238:Drivers/STM32L1xx_HAL_Driver/Src/stm32l1xx_hal_rcc_ex.c **** 
 239:Drivers/STM32L1xx_HAL_Driver/Src/stm32l1xx_hal_rcc_ex.c ****   /* Get the RTC/LCD configuration -----------------------------------------------*/
 240:Drivers/STM32L1xx_HAL_Driver/Src/stm32l1xx_hal_rcc_ex.c ****   srcclk = __HAL_RCC_GET_RTC_SOURCE();
 409              		.loc 1 240 3 is_stmt 1 view .LVU128
ARM GAS  /tmp/ccwboCco.s 			page 13


 410              		.loc 1 240 12 is_stmt 0 view .LVU129
 411 0008 084B     		ldr	r3, .L35
 412 000a 5B6B     		ldr	r3, [r3, #52]
 413              		.loc 1 240 10 view .LVU130
 414 000c 03F44033 		and	r3, r3, #196608
 415              	.LVL31:
 241:Drivers/STM32L1xx_HAL_Driver/Src/stm32l1xx_hal_rcc_ex.c ****   if (srcclk != RCC_RTCCLKSOURCE_HSE_DIV2)
 416              		.loc 1 241 3 is_stmt 1 view .LVU131
 417              		.loc 1 241 6 is_stmt 0 view .LVU132
 418 0010 B3F5403F 		cmp	r3, #196608
 419 0014 03D0     		beq	.L33
 242:Drivers/STM32L1xx_HAL_Driver/Src/stm32l1xx_hal_rcc_ex.c ****   {
 243:Drivers/STM32L1xx_HAL_Driver/Src/stm32l1xx_hal_rcc_ex.c ****     /* Source clock is LSE or LSI*/
 244:Drivers/STM32L1xx_HAL_Driver/Src/stm32l1xx_hal_rcc_ex.c ****     PeriphClkInit->RTCClockSelection = srcclk;
 420              		.loc 1 244 5 is_stmt 1 view .LVU133
 421              		.loc 1 244 38 is_stmt 0 view .LVU134
 422 0016 4360     		str	r3, [r0, #4]
 423              	.LVL32:
 424              	.L34:
 245:Drivers/STM32L1xx_HAL_Driver/Src/stm32l1xx_hal_rcc_ex.c ****   }
 246:Drivers/STM32L1xx_HAL_Driver/Src/stm32l1xx_hal_rcc_ex.c ****   else
 247:Drivers/STM32L1xx_HAL_Driver/Src/stm32l1xx_hal_rcc_ex.c ****   {
 248:Drivers/STM32L1xx_HAL_Driver/Src/stm32l1xx_hal_rcc_ex.c ****     /* Source clock is HSE. Need to get the prescaler value*/
 249:Drivers/STM32L1xx_HAL_Driver/Src/stm32l1xx_hal_rcc_ex.c ****     PeriphClkInit->RTCClockSelection = srcclk | (READ_BIT(RCC->CR, RCC_CR_RTCPRE));
 250:Drivers/STM32L1xx_HAL_Driver/Src/stm32l1xx_hal_rcc_ex.c ****   }
 251:Drivers/STM32L1xx_HAL_Driver/Src/stm32l1xx_hal_rcc_ex.c **** #if defined(LCD)
 252:Drivers/STM32L1xx_HAL_Driver/Src/stm32l1xx_hal_rcc_ex.c ****   PeriphClkInit->LCDClockSelection = PeriphClkInit->RTCClockSelection;
 425              		.loc 1 252 3 is_stmt 1 view .LVU135
 426              		.loc 1 252 51 is_stmt 0 view .LVU136
 427 0018 4368     		ldr	r3, [r0, #4]
 428              		.loc 1 252 36 view .LVU137
 429 001a 8360     		str	r3, [r0, #8]
 253:Drivers/STM32L1xx_HAL_Driver/Src/stm32l1xx_hal_rcc_ex.c **** #endif /* LCD */
 254:Drivers/STM32L1xx_HAL_Driver/Src/stm32l1xx_hal_rcc_ex.c **** }
 430              		.loc 1 254 1 view .LVU138
 431 001c 7047     		bx	lr
 432              	.LVL33:
 433              	.L33:
 249:Drivers/STM32L1xx_HAL_Driver/Src/stm32l1xx_hal_rcc_ex.c ****   }
 434              		.loc 1 249 5 is_stmt 1 view .LVU139
 249:Drivers/STM32L1xx_HAL_Driver/Src/stm32l1xx_hal_rcc_ex.c ****   }
 435              		.loc 1 249 50 is_stmt 0 view .LVU140
 436 001e 034A     		ldr	r2, .L35
 437 0020 1268     		ldr	r2, [r2]
 438 0022 02F0C042 		and	r2, r2, #1610612736
 249:Drivers/STM32L1xx_HAL_Driver/Src/stm32l1xx_hal_rcc_ex.c ****   }
 439              		.loc 1 249 47 view .LVU141
 440 0026 1343     		orrs	r3, r3, r2
 441              	.LVL34:
 249:Drivers/STM32L1xx_HAL_Driver/Src/stm32l1xx_hal_rcc_ex.c ****   }
 442              		.loc 1 249 38 view .LVU142
 443 0028 4360     		str	r3, [r0, #4]
 444 002a F5E7     		b	.L34
 445              	.L36:
 446              		.align	2
 447              	.L35:
 448 002c 00380240 		.word	1073887232
ARM GAS  /tmp/ccwboCco.s 			page 14


 449              		.cfi_endproc
 450              	.LFE73:
 452              		.section	.text.HAL_RCCEx_GetPeriphCLKFreq,"ax",%progbits
 453              		.align	1
 454              		.global	HAL_RCCEx_GetPeriphCLKFreq
 455              		.syntax unified
 456              		.thumb
 457              		.thumb_func
 459              	HAL_RCCEx_GetPeriphCLKFreq:
 460              	.LVL35:
 461              	.LFB74:
 255:Drivers/STM32L1xx_HAL_Driver/Src/stm32l1xx_hal_rcc_ex.c **** 
 256:Drivers/STM32L1xx_HAL_Driver/Src/stm32l1xx_hal_rcc_ex.c **** /**
 257:Drivers/STM32L1xx_HAL_Driver/Src/stm32l1xx_hal_rcc_ex.c ****   * @brief  Return the peripheral clock frequency
 258:Drivers/STM32L1xx_HAL_Driver/Src/stm32l1xx_hal_rcc_ex.c ****   * @note   Return 0 if peripheral clock is unknown
 259:Drivers/STM32L1xx_HAL_Driver/Src/stm32l1xx_hal_rcc_ex.c ****   * @param  PeriphClk Peripheral clock identifier
 260:Drivers/STM32L1xx_HAL_Driver/Src/stm32l1xx_hal_rcc_ex.c ****   *         This parameter can be one of the following values:
 261:Drivers/STM32L1xx_HAL_Driver/Src/stm32l1xx_hal_rcc_ex.c ****   *            @arg @ref RCC_PERIPHCLK_RTC      RTC peripheral clock
 262:Drivers/STM32L1xx_HAL_Driver/Src/stm32l1xx_hal_rcc_ex.c ****   *            @arg @ref RCC_PERIPHCLK_LCD      LCD peripheral clock (*)
 263:Drivers/STM32L1xx_HAL_Driver/Src/stm32l1xx_hal_rcc_ex.c ****   * @note   (*) means that this peripheral is not present on all the devices
 264:Drivers/STM32L1xx_HAL_Driver/Src/stm32l1xx_hal_rcc_ex.c ****   * @retval Frequency in Hz (0: means that no available frequency for the peripheral)
 265:Drivers/STM32L1xx_HAL_Driver/Src/stm32l1xx_hal_rcc_ex.c ****   */
 266:Drivers/STM32L1xx_HAL_Driver/Src/stm32l1xx_hal_rcc_ex.c **** uint32_t HAL_RCCEx_GetPeriphCLKFreq(uint32_t PeriphClk)
 267:Drivers/STM32L1xx_HAL_Driver/Src/stm32l1xx_hal_rcc_ex.c **** {
 462              		.loc 1 267 1 is_stmt 1 view -0
 463              		.cfi_startproc
 464              		@ args = 0, pretend = 0, frame = 0
 465              		@ frame_needed = 0, uses_anonymous_args = 0
 466              		@ link register save eliminated.
 268:Drivers/STM32L1xx_HAL_Driver/Src/stm32l1xx_hal_rcc_ex.c ****   uint32_t frequency = 0;
 467              		.loc 1 268 3 view .LVU144
 269:Drivers/STM32L1xx_HAL_Driver/Src/stm32l1xx_hal_rcc_ex.c ****   uint32_t srcclk;
 468              		.loc 1 269 3 view .LVU145
 270:Drivers/STM32L1xx_HAL_Driver/Src/stm32l1xx_hal_rcc_ex.c **** 
 271:Drivers/STM32L1xx_HAL_Driver/Src/stm32l1xx_hal_rcc_ex.c ****   /* Check the parameters */
 272:Drivers/STM32L1xx_HAL_Driver/Src/stm32l1xx_hal_rcc_ex.c ****   assert_param(IS_RCC_PERIPHCLOCK(PeriphClk));
 469              		.loc 1 272 3 view .LVU146
 273:Drivers/STM32L1xx_HAL_Driver/Src/stm32l1xx_hal_rcc_ex.c **** 
 274:Drivers/STM32L1xx_HAL_Driver/Src/stm32l1xx_hal_rcc_ex.c ****   switch (PeriphClk)
 470              		.loc 1 274 3 view .LVU147
 471 0000 0138     		subs	r0, r0, #1
 472              	.LVL36:
 473              		.loc 1 274 3 is_stmt 0 view .LVU148
 474 0002 0128     		cmp	r0, #1
 475 0004 01D9     		bls	.L48
 268:Drivers/STM32L1xx_HAL_Driver/Src/stm32l1xx_hal_rcc_ex.c ****   uint32_t srcclk;
 476              		.loc 1 268 12 view .LVU149
 477 0006 0020     		movs	r0, #0
 478              	.LVL37:
 268:Drivers/STM32L1xx_HAL_Driver/Src/stm32l1xx_hal_rcc_ex.c ****   uint32_t srcclk;
 479              		.loc 1 268 12 view .LVU150
 480 0008 7047     		bx	lr
 481              	.L48:
 275:Drivers/STM32L1xx_HAL_Driver/Src/stm32l1xx_hal_rcc_ex.c ****   {
 276:Drivers/STM32L1xx_HAL_Driver/Src/stm32l1xx_hal_rcc_ex.c ****   case RCC_PERIPHCLK_RTC:
 277:Drivers/STM32L1xx_HAL_Driver/Src/stm32l1xx_hal_rcc_ex.c **** #if defined(LCD)
 278:Drivers/STM32L1xx_HAL_Driver/Src/stm32l1xx_hal_rcc_ex.c ****   case RCC_PERIPHCLK_LCD:
ARM GAS  /tmp/ccwboCco.s 			page 15


 279:Drivers/STM32L1xx_HAL_Driver/Src/stm32l1xx_hal_rcc_ex.c **** #endif /* LCD */
 280:Drivers/STM32L1xx_HAL_Driver/Src/stm32l1xx_hal_rcc_ex.c ****     {
 281:Drivers/STM32L1xx_HAL_Driver/Src/stm32l1xx_hal_rcc_ex.c ****       /* Get the current RTC source */
 282:Drivers/STM32L1xx_HAL_Driver/Src/stm32l1xx_hal_rcc_ex.c ****       srcclk = __HAL_RCC_GET_RTC_SOURCE();
 482              		.loc 1 282 7 is_stmt 1 view .LVU151
 483              		.loc 1 282 16 is_stmt 0 view .LVU152
 484 000a 1C4B     		ldr	r3, .L53
 485 000c 5B6B     		ldr	r3, [r3, #52]
 486              		.loc 1 282 14 view .LVU153
 487 000e 03F44033 		and	r3, r3, #196608
 488              	.LVL38:
 283:Drivers/STM32L1xx_HAL_Driver/Src/stm32l1xx_hal_rcc_ex.c **** 
 284:Drivers/STM32L1xx_HAL_Driver/Src/stm32l1xx_hal_rcc_ex.c ****       /* Check if LSE is ready if RTC clock selection is LSE */
 285:Drivers/STM32L1xx_HAL_Driver/Src/stm32l1xx_hal_rcc_ex.c ****       if (srcclk == RCC_RTCCLKSOURCE_LSE)
 489              		.loc 1 285 7 is_stmt 1 view .LVU154
 490              		.loc 1 285 10 is_stmt 0 view .LVU155
 491 0012 B3F5803F 		cmp	r3, #65536
 492 0016 07D0     		beq	.L49
 286:Drivers/STM32L1xx_HAL_Driver/Src/stm32l1xx_hal_rcc_ex.c ****       {
 287:Drivers/STM32L1xx_HAL_Driver/Src/stm32l1xx_hal_rcc_ex.c ****         if (HAL_IS_BIT_SET(RCC->CSR, RCC_CSR_LSERDY))
 288:Drivers/STM32L1xx_HAL_Driver/Src/stm32l1xx_hal_rcc_ex.c ****         {
 289:Drivers/STM32L1xx_HAL_Driver/Src/stm32l1xx_hal_rcc_ex.c ****           frequency = LSE_VALUE;
 290:Drivers/STM32L1xx_HAL_Driver/Src/stm32l1xx_hal_rcc_ex.c ****         }
 291:Drivers/STM32L1xx_HAL_Driver/Src/stm32l1xx_hal_rcc_ex.c ****       }
 292:Drivers/STM32L1xx_HAL_Driver/Src/stm32l1xx_hal_rcc_ex.c ****       /* Check if LSI is ready if RTC clock selection is LSI */
 293:Drivers/STM32L1xx_HAL_Driver/Src/stm32l1xx_hal_rcc_ex.c ****       else if (srcclk == RCC_RTCCLKSOURCE_LSI)
 493              		.loc 1 293 12 is_stmt 1 view .LVU156
 494              		.loc 1 293 15 is_stmt 0 view .LVU157
 495 0018 B3F5003F 		cmp	r3, #131072
 496 001c 0AD0     		beq	.L50
 294:Drivers/STM32L1xx_HAL_Driver/Src/stm32l1xx_hal_rcc_ex.c ****       {
 295:Drivers/STM32L1xx_HAL_Driver/Src/stm32l1xx_hal_rcc_ex.c ****         if (HAL_IS_BIT_SET(RCC->CSR, RCC_CSR_LSIRDY))
 296:Drivers/STM32L1xx_HAL_Driver/Src/stm32l1xx_hal_rcc_ex.c ****         {
 297:Drivers/STM32L1xx_HAL_Driver/Src/stm32l1xx_hal_rcc_ex.c ****           frequency = LSI_VALUE;
 298:Drivers/STM32L1xx_HAL_Driver/Src/stm32l1xx_hal_rcc_ex.c ****         }
 299:Drivers/STM32L1xx_HAL_Driver/Src/stm32l1xx_hal_rcc_ex.c ****       }
 300:Drivers/STM32L1xx_HAL_Driver/Src/stm32l1xx_hal_rcc_ex.c ****       /* Check if HSE is ready and if RTC clock selection is HSE */
 301:Drivers/STM32L1xx_HAL_Driver/Src/stm32l1xx_hal_rcc_ex.c ****       else if (srcclk == RCC_RTCCLKSOURCE_HSE_DIVX)
 497              		.loc 1 301 12 is_stmt 1 view .LVU158
 498              		.loc 1 301 15 is_stmt 0 view .LVU159
 499 001e B3F5403F 		cmp	r3, #196608
 500 0022 0FD0     		beq	.L51
 268:Drivers/STM32L1xx_HAL_Driver/Src/stm32l1xx_hal_rcc_ex.c ****   uint32_t srcclk;
 501              		.loc 1 268 12 view .LVU160
 502 0024 0020     		movs	r0, #0
 503 0026 7047     		bx	lr
 504              	.L49:
 287:Drivers/STM32L1xx_HAL_Driver/Src/stm32l1xx_hal_rcc_ex.c ****         {
 505              		.loc 1 287 9 is_stmt 1 view .LVU161
 287:Drivers/STM32L1xx_HAL_Driver/Src/stm32l1xx_hal_rcc_ex.c ****         {
 506              		.loc 1 287 13 is_stmt 0 view .LVU162
 507 0028 144B     		ldr	r3, .L53
 508              	.LVL39:
 287:Drivers/STM32L1xx_HAL_Driver/Src/stm32l1xx_hal_rcc_ex.c ****         {
 509              		.loc 1 287 13 view .LVU163
 510 002a 586B     		ldr	r0, [r3, #52]
 287:Drivers/STM32L1xx_HAL_Driver/Src/stm32l1xx_hal_rcc_ex.c ****         {
ARM GAS  /tmp/ccwboCco.s 			page 16


 511              		.loc 1 287 12 view .LVU164
 512 002c 10F40070 		ands	r0, r0, #512
 513 0030 1BD1     		bne	.L52
 514              	.LVL40:
 515              	.L37:
 302:Drivers/STM32L1xx_HAL_Driver/Src/stm32l1xx_hal_rcc_ex.c ****       {
 303:Drivers/STM32L1xx_HAL_Driver/Src/stm32l1xx_hal_rcc_ex.c ****         if (HAL_IS_BIT_SET(RCC->CR, RCC_CR_HSERDY))
 304:Drivers/STM32L1xx_HAL_Driver/Src/stm32l1xx_hal_rcc_ex.c ****         {
 305:Drivers/STM32L1xx_HAL_Driver/Src/stm32l1xx_hal_rcc_ex.c ****           /* Get the current HSE clock divider */
 306:Drivers/STM32L1xx_HAL_Driver/Src/stm32l1xx_hal_rcc_ex.c ****           switch (__HAL_RCC_GET_RTC_HSE_PRESCALER())
 307:Drivers/STM32L1xx_HAL_Driver/Src/stm32l1xx_hal_rcc_ex.c ****           {
 308:Drivers/STM32L1xx_HAL_Driver/Src/stm32l1xx_hal_rcc_ex.c ****             case RCC_RTC_HSE_DIV_16:  /* HSE DIV16 has been selected */
 309:Drivers/STM32L1xx_HAL_Driver/Src/stm32l1xx_hal_rcc_ex.c ****             {
 310:Drivers/STM32L1xx_HAL_Driver/Src/stm32l1xx_hal_rcc_ex.c ****               frequency = HSE_VALUE / 16U;
 311:Drivers/STM32L1xx_HAL_Driver/Src/stm32l1xx_hal_rcc_ex.c ****               break;
 312:Drivers/STM32L1xx_HAL_Driver/Src/stm32l1xx_hal_rcc_ex.c ****             }
 313:Drivers/STM32L1xx_HAL_Driver/Src/stm32l1xx_hal_rcc_ex.c ****             case RCC_RTC_HSE_DIV_8:   /* HSE DIV8 has been selected  */
 314:Drivers/STM32L1xx_HAL_Driver/Src/stm32l1xx_hal_rcc_ex.c ****             {
 315:Drivers/STM32L1xx_HAL_Driver/Src/stm32l1xx_hal_rcc_ex.c ****               frequency = HSE_VALUE / 8U;
 316:Drivers/STM32L1xx_HAL_Driver/Src/stm32l1xx_hal_rcc_ex.c ****               break;
 317:Drivers/STM32L1xx_HAL_Driver/Src/stm32l1xx_hal_rcc_ex.c ****             }
 318:Drivers/STM32L1xx_HAL_Driver/Src/stm32l1xx_hal_rcc_ex.c ****             case RCC_RTC_HSE_DIV_4:   /* HSE DIV4 has been selected  */
 319:Drivers/STM32L1xx_HAL_Driver/Src/stm32l1xx_hal_rcc_ex.c ****             {
 320:Drivers/STM32L1xx_HAL_Driver/Src/stm32l1xx_hal_rcc_ex.c ****               frequency = HSE_VALUE / 4U;
 321:Drivers/STM32L1xx_HAL_Driver/Src/stm32l1xx_hal_rcc_ex.c ****               break;
 322:Drivers/STM32L1xx_HAL_Driver/Src/stm32l1xx_hal_rcc_ex.c ****             }
 323:Drivers/STM32L1xx_HAL_Driver/Src/stm32l1xx_hal_rcc_ex.c ****             default:                  /* HSE DIV2 has been selected  */
 324:Drivers/STM32L1xx_HAL_Driver/Src/stm32l1xx_hal_rcc_ex.c ****             {
 325:Drivers/STM32L1xx_HAL_Driver/Src/stm32l1xx_hal_rcc_ex.c ****               frequency = HSE_VALUE / 2U;
 326:Drivers/STM32L1xx_HAL_Driver/Src/stm32l1xx_hal_rcc_ex.c ****               break;
 327:Drivers/STM32L1xx_HAL_Driver/Src/stm32l1xx_hal_rcc_ex.c ****             }
 328:Drivers/STM32L1xx_HAL_Driver/Src/stm32l1xx_hal_rcc_ex.c ****           }
 329:Drivers/STM32L1xx_HAL_Driver/Src/stm32l1xx_hal_rcc_ex.c ****         }
 330:Drivers/STM32L1xx_HAL_Driver/Src/stm32l1xx_hal_rcc_ex.c ****       }
 331:Drivers/STM32L1xx_HAL_Driver/Src/stm32l1xx_hal_rcc_ex.c ****       else
 332:Drivers/STM32L1xx_HAL_Driver/Src/stm32l1xx_hal_rcc_ex.c ****       {
 333:Drivers/STM32L1xx_HAL_Driver/Src/stm32l1xx_hal_rcc_ex.c ****         /* No clock source, frequency default init at 0 */
 334:Drivers/STM32L1xx_HAL_Driver/Src/stm32l1xx_hal_rcc_ex.c ****       }
 335:Drivers/STM32L1xx_HAL_Driver/Src/stm32l1xx_hal_rcc_ex.c ****       break;
 336:Drivers/STM32L1xx_HAL_Driver/Src/stm32l1xx_hal_rcc_ex.c ****     }
 337:Drivers/STM32L1xx_HAL_Driver/Src/stm32l1xx_hal_rcc_ex.c **** 
 338:Drivers/STM32L1xx_HAL_Driver/Src/stm32l1xx_hal_rcc_ex.c ****   default:
 339:Drivers/STM32L1xx_HAL_Driver/Src/stm32l1xx_hal_rcc_ex.c ****     break;
 340:Drivers/STM32L1xx_HAL_Driver/Src/stm32l1xx_hal_rcc_ex.c ****   }
 341:Drivers/STM32L1xx_HAL_Driver/Src/stm32l1xx_hal_rcc_ex.c **** 
 342:Drivers/STM32L1xx_HAL_Driver/Src/stm32l1xx_hal_rcc_ex.c ****   return(frequency);
 343:Drivers/STM32L1xx_HAL_Driver/Src/stm32l1xx_hal_rcc_ex.c **** }
 516              		.loc 1 343 1 view .LVU165
 517 0032 7047     		bx	lr
 518              	.LVL41:
 519              	.L50:
 295:Drivers/STM32L1xx_HAL_Driver/Src/stm32l1xx_hal_rcc_ex.c ****         {
 520              		.loc 1 295 9 is_stmt 1 view .LVU166
 295:Drivers/STM32L1xx_HAL_Driver/Src/stm32l1xx_hal_rcc_ex.c ****         {
 521              		.loc 1 295 13 is_stmt 0 view .LVU167
 522 0034 114B     		ldr	r3, .L53
 523              	.LVL42:
ARM GAS  /tmp/ccwboCco.s 			page 17


 295:Drivers/STM32L1xx_HAL_Driver/Src/stm32l1xx_hal_rcc_ex.c ****         {
 524              		.loc 1 295 13 view .LVU168
 525 0036 586B     		ldr	r0, [r3, #52]
 295:Drivers/STM32L1xx_HAL_Driver/Src/stm32l1xx_hal_rcc_ex.c ****         {
 526              		.loc 1 295 12 view .LVU169
 527 0038 10F00200 		ands	r0, r0, #2
 528 003c F9D0     		beq	.L37
 297:Drivers/STM32L1xx_HAL_Driver/Src/stm32l1xx_hal_rcc_ex.c ****         }
 529              		.loc 1 297 21 view .LVU170
 530 003e 49F28800 		movw	r0, #37000
 531 0042 7047     		bx	lr
 532              	.LVL43:
 533              	.L51:
 303:Drivers/STM32L1xx_HAL_Driver/Src/stm32l1xx_hal_rcc_ex.c ****         {
 534              		.loc 1 303 9 is_stmt 1 view .LVU171
 303:Drivers/STM32L1xx_HAL_Driver/Src/stm32l1xx_hal_rcc_ex.c ****         {
 535              		.loc 1 303 13 is_stmt 0 view .LVU172
 536 0044 0D4B     		ldr	r3, .L53
 537              	.LVL44:
 303:Drivers/STM32L1xx_HAL_Driver/Src/stm32l1xx_hal_rcc_ex.c ****         {
 538              		.loc 1 303 13 view .LVU173
 539 0046 1868     		ldr	r0, [r3]
 303:Drivers/STM32L1xx_HAL_Driver/Src/stm32l1xx_hal_rcc_ex.c ****         {
 540              		.loc 1 303 12 view .LVU174
 541 0048 10F40030 		ands	r0, r0, #131072
 542 004c F1D0     		beq	.L37
 306:Drivers/STM32L1xx_HAL_Driver/Src/stm32l1xx_hal_rcc_ex.c ****           {
 543              		.loc 1 306 11 is_stmt 1 view .LVU175
 306:Drivers/STM32L1xx_HAL_Driver/Src/stm32l1xx_hal_rcc_ex.c ****           {
 544              		.loc 1 306 19 is_stmt 0 view .LVU176
 545 004e 1B68     		ldr	r3, [r3]
 546 0050 03F0C043 		and	r3, r3, #1610612736
 547 0054 B3F1804F 		cmp	r3, #1073741824
 548 0058 0AD0     		beq	.L45
 549 005a B3F1C04F 		cmp	r3, #1610612736
 550 005e 09D0     		beq	.L46
 551 0060 B3F1005F 		cmp	r3, #536870912
 552 0064 08D1     		bne	.L47
 320:Drivers/STM32L1xx_HAL_Driver/Src/stm32l1xx_hal_rcc_ex.c ****               break;
 553              		.loc 1 320 25 view .LVU177
 554 0066 0648     		ldr	r0, .L53+4
 555 0068 7047     		bx	lr
 556              	.L52:
 289:Drivers/STM32L1xx_HAL_Driver/Src/stm32l1xx_hal_rcc_ex.c ****         }
 557              		.loc 1 289 21 view .LVU178
 558 006a 4FF40040 		mov	r0, #32768
 559 006e 7047     		bx	lr
 560              	.L45:
 315:Drivers/STM32L1xx_HAL_Driver/Src/stm32l1xx_hal_rcc_ex.c ****               break;
 561              		.loc 1 315 25 view .LVU179
 562 0070 0448     		ldr	r0, .L53+8
 563 0072 7047     		bx	lr
 564              	.L46:
 565 0074 0448     		ldr	r0, .L53+12
 566 0076 7047     		bx	lr
 567              	.L47:
 325:Drivers/STM32L1xx_HAL_Driver/Src/stm32l1xx_hal_rcc_ex.c ****               break;
ARM GAS  /tmp/ccwboCco.s 			page 18


 568              		.loc 1 325 25 view .LVU180
 569 0078 0448     		ldr	r0, .L53+16
 570              	.LVL45:
 342:Drivers/STM32L1xx_HAL_Driver/Src/stm32l1xx_hal_rcc_ex.c **** }
 571              		.loc 1 342 3 is_stmt 1 view .LVU181
 342:Drivers/STM32L1xx_HAL_Driver/Src/stm32l1xx_hal_rcc_ex.c **** }
 572              		.loc 1 342 9 is_stmt 0 view .LVU182
 573 007a DAE7     		b	.L37
 574              	.L54:
 575              		.align	2
 576              	.L53:
 577 007c 00380240 		.word	1073887232
 578 0080 80841E00 		.word	2000000
 579 0084 40420F00 		.word	1000000
 580 0088 20A10700 		.word	500000
 581 008c 00093D00 		.word	4000000
 582              		.cfi_endproc
 583              	.LFE74:
 585              		.section	.text.HAL_RCCEx_EnableLSECSS,"ax",%progbits
 586              		.align	1
 587              		.global	HAL_RCCEx_EnableLSECSS
 588              		.syntax unified
 589              		.thumb
 590              		.thumb_func
 592              	HAL_RCCEx_EnableLSECSS:
 593              	.LFB75:
 344:Drivers/STM32L1xx_HAL_Driver/Src/stm32l1xx_hal_rcc_ex.c **** 
 345:Drivers/STM32L1xx_HAL_Driver/Src/stm32l1xx_hal_rcc_ex.c **** #if defined(RCC_LSECSS_SUPPORT)
 346:Drivers/STM32L1xx_HAL_Driver/Src/stm32l1xx_hal_rcc_ex.c **** /**
 347:Drivers/STM32L1xx_HAL_Driver/Src/stm32l1xx_hal_rcc_ex.c ****   * @brief  Enables the LSE Clock Security System.
 348:Drivers/STM32L1xx_HAL_Driver/Src/stm32l1xx_hal_rcc_ex.c ****   * @note   If a failure is detected on the external 32 kHz oscillator, the LSE clock is no longer 
 349:Drivers/STM32L1xx_HAL_Driver/Src/stm32l1xx_hal_rcc_ex.c ****   *         to the RTC but no hardware action is made to the registers.
 350:Drivers/STM32L1xx_HAL_Driver/Src/stm32l1xx_hal_rcc_ex.c ****   *         In Standby mode a wakeup is generated. In other modes an interrupt can be sent to wakeu
 351:Drivers/STM32L1xx_HAL_Driver/Src/stm32l1xx_hal_rcc_ex.c ****   *         the software (see Section 5.3.4: Clock interrupt register (RCC_CIR) on page 104).
 352:Drivers/STM32L1xx_HAL_Driver/Src/stm32l1xx_hal_rcc_ex.c ****   *         The software MUST then disable the LSECSSON bit, stop the defective 32 kHz oscillator
 353:Drivers/STM32L1xx_HAL_Driver/Src/stm32l1xx_hal_rcc_ex.c ****   *         (disabling LSEON), and can change the RTC clock source (no clock or LSI or HSE, with
 354:Drivers/STM32L1xx_HAL_Driver/Src/stm32l1xx_hal_rcc_ex.c ****   *         RTCSEL), or take any required action to secure the application.
 355:Drivers/STM32L1xx_HAL_Driver/Src/stm32l1xx_hal_rcc_ex.c ****   * @note   LSE CSS available only for high density and medium+ devices
 356:Drivers/STM32L1xx_HAL_Driver/Src/stm32l1xx_hal_rcc_ex.c ****   * @retval None
 357:Drivers/STM32L1xx_HAL_Driver/Src/stm32l1xx_hal_rcc_ex.c ****   */
 358:Drivers/STM32L1xx_HAL_Driver/Src/stm32l1xx_hal_rcc_ex.c **** void HAL_RCCEx_EnableLSECSS(void)
 359:Drivers/STM32L1xx_HAL_Driver/Src/stm32l1xx_hal_rcc_ex.c **** {
 594              		.loc 1 359 1 is_stmt 1 view -0
 595              		.cfi_startproc
 596              		@ args = 0, pretend = 0, frame = 0
 597              		@ frame_needed = 0, uses_anonymous_args = 0
 598              		@ link register save eliminated.
 360:Drivers/STM32L1xx_HAL_Driver/Src/stm32l1xx_hal_rcc_ex.c ****   *(__IO uint32_t *) CSR_LSECSSON_BB = (uint32_t)ENABLE;
 599              		.loc 1 360 3 view .LVU184
 600              		.loc 1 360 38 is_stmt 0 view .LVU185
 601 0000 024B     		ldr	r3, .L56
 602 0002 0122     		movs	r2, #1
 603 0004 C3F8AC26 		str	r2, [r3, #1708]
 361:Drivers/STM32L1xx_HAL_Driver/Src/stm32l1xx_hal_rcc_ex.c **** }
 604              		.loc 1 361 1 view .LVU186
 605 0008 7047     		bx	lr
 606              	.L57:
ARM GAS  /tmp/ccwboCco.s 			page 19


 607 000a 00BF     		.align	2
 608              	.L56:
 609 000c 00004742 		.word	1111949312
 610              		.cfi_endproc
 611              	.LFE75:
 613              		.section	.text.HAL_RCCEx_DisableLSECSS,"ax",%progbits
 614              		.align	1
 615              		.global	HAL_RCCEx_DisableLSECSS
 616              		.syntax unified
 617              		.thumb
 618              		.thumb_func
 620              	HAL_RCCEx_DisableLSECSS:
 621              	.LFB76:
 362:Drivers/STM32L1xx_HAL_Driver/Src/stm32l1xx_hal_rcc_ex.c **** 
 363:Drivers/STM32L1xx_HAL_Driver/Src/stm32l1xx_hal_rcc_ex.c **** /**
 364:Drivers/STM32L1xx_HAL_Driver/Src/stm32l1xx_hal_rcc_ex.c ****   * @brief  Disables the LSE Clock Security System.
 365:Drivers/STM32L1xx_HAL_Driver/Src/stm32l1xx_hal_rcc_ex.c ****   * @note   Once enabled this bit cannot be disabled, except after an LSE failure detection
 366:Drivers/STM32L1xx_HAL_Driver/Src/stm32l1xx_hal_rcc_ex.c ****   *         (LSECSSD=1). In that case the software MUST disable the LSECSSON bit.
 367:Drivers/STM32L1xx_HAL_Driver/Src/stm32l1xx_hal_rcc_ex.c ****   *         Reset by power on reset and RTC software reset (RTCRST bit).
 368:Drivers/STM32L1xx_HAL_Driver/Src/stm32l1xx_hal_rcc_ex.c ****   * @note   LSE CSS available only for high density and medium+ devices
 369:Drivers/STM32L1xx_HAL_Driver/Src/stm32l1xx_hal_rcc_ex.c ****   * @retval None
 370:Drivers/STM32L1xx_HAL_Driver/Src/stm32l1xx_hal_rcc_ex.c ****   */
 371:Drivers/STM32L1xx_HAL_Driver/Src/stm32l1xx_hal_rcc_ex.c **** void HAL_RCCEx_DisableLSECSS(void)
 372:Drivers/STM32L1xx_HAL_Driver/Src/stm32l1xx_hal_rcc_ex.c **** {
 622              		.loc 1 372 1 is_stmt 1 view -0
 623              		.cfi_startproc
 624              		@ args = 0, pretend = 0, frame = 0
 625              		@ frame_needed = 0, uses_anonymous_args = 0
 626              		@ link register save eliminated.
 373:Drivers/STM32L1xx_HAL_Driver/Src/stm32l1xx_hal_rcc_ex.c ****   /* Disable LSE CSS */
 374:Drivers/STM32L1xx_HAL_Driver/Src/stm32l1xx_hal_rcc_ex.c ****   *(__IO uint32_t *) CSR_LSECSSON_BB = (uint32_t)DISABLE;
 627              		.loc 1 374 3 view .LVU188
 628              		.loc 1 374 38 is_stmt 0 view .LVU189
 629 0000 044B     		ldr	r3, .L59
 630 0002 0022     		movs	r2, #0
 631 0004 C3F8AC26 		str	r2, [r3, #1708]
 375:Drivers/STM32L1xx_HAL_Driver/Src/stm32l1xx_hal_rcc_ex.c **** 
 376:Drivers/STM32L1xx_HAL_Driver/Src/stm32l1xx_hal_rcc_ex.c ****   /* Disable LSE CSS IT */
 377:Drivers/STM32L1xx_HAL_Driver/Src/stm32l1xx_hal_rcc_ex.c ****   __HAL_RCC_DISABLE_IT(RCC_IT_LSECSS);
 632              		.loc 1 377 3 is_stmt 1 view .LVU190
 633 0008 034A     		ldr	r2, .L59+4
 634 000a 537B     		ldrb	r3, [r2, #13]	@ zero_extendqisi2
 635 000c 03F0BF03 		and	r3, r3, #191
 636 0010 5373     		strb	r3, [r2, #13]
 378:Drivers/STM32L1xx_HAL_Driver/Src/stm32l1xx_hal_rcc_ex.c **** }
 637              		.loc 1 378 1 is_stmt 0 view .LVU191
 638 0012 7047     		bx	lr
 639              	.L60:
 640              		.align	2
 641              	.L59:
 642 0014 00004742 		.word	1111949312
 643 0018 00380240 		.word	1073887232
 644              		.cfi_endproc
 645              	.LFE76:
 647              		.section	.text.HAL_RCCEx_EnableLSECSS_IT,"ax",%progbits
 648              		.align	1
 649              		.global	HAL_RCCEx_EnableLSECSS_IT
ARM GAS  /tmp/ccwboCco.s 			page 20


 650              		.syntax unified
 651              		.thumb
 652              		.thumb_func
 654              	HAL_RCCEx_EnableLSECSS_IT:
 655              	.LFB77:
 379:Drivers/STM32L1xx_HAL_Driver/Src/stm32l1xx_hal_rcc_ex.c **** 
 380:Drivers/STM32L1xx_HAL_Driver/Src/stm32l1xx_hal_rcc_ex.c **** /**
 381:Drivers/STM32L1xx_HAL_Driver/Src/stm32l1xx_hal_rcc_ex.c ****   * @brief  Enable the LSE Clock Security System IT & corresponding EXTI line.
 382:Drivers/STM32L1xx_HAL_Driver/Src/stm32l1xx_hal_rcc_ex.c ****   * @note   LSE Clock Security System IT is mapped on RTC EXTI line 19
 383:Drivers/STM32L1xx_HAL_Driver/Src/stm32l1xx_hal_rcc_ex.c ****   * @retval None
 384:Drivers/STM32L1xx_HAL_Driver/Src/stm32l1xx_hal_rcc_ex.c ****   */
 385:Drivers/STM32L1xx_HAL_Driver/Src/stm32l1xx_hal_rcc_ex.c **** void HAL_RCCEx_EnableLSECSS_IT(void)
 386:Drivers/STM32L1xx_HAL_Driver/Src/stm32l1xx_hal_rcc_ex.c **** {
 656              		.loc 1 386 1 is_stmt 1 view -0
 657              		.cfi_startproc
 658              		@ args = 0, pretend = 0, frame = 0
 659              		@ frame_needed = 0, uses_anonymous_args = 0
 660              		@ link register save eliminated.
 387:Drivers/STM32L1xx_HAL_Driver/Src/stm32l1xx_hal_rcc_ex.c ****   /* Enable LSE CSS */
 388:Drivers/STM32L1xx_HAL_Driver/Src/stm32l1xx_hal_rcc_ex.c ****   *(__IO uint32_t *) CSR_LSECSSON_BB = (uint32_t)ENABLE;
 661              		.loc 1 388 3 view .LVU193
 662              		.loc 1 388 38 is_stmt 0 view .LVU194
 663 0000 094B     		ldr	r3, .L62
 664 0002 0122     		movs	r2, #1
 665 0004 C3F8AC26 		str	r2, [r3, #1708]
 389:Drivers/STM32L1xx_HAL_Driver/Src/stm32l1xx_hal_rcc_ex.c **** 
 390:Drivers/STM32L1xx_HAL_Driver/Src/stm32l1xx_hal_rcc_ex.c ****   /* Enable LSE CSS IT */
 391:Drivers/STM32L1xx_HAL_Driver/Src/stm32l1xx_hal_rcc_ex.c ****   __HAL_RCC_ENABLE_IT(RCC_IT_LSECSS);
 666              		.loc 1 391 3 is_stmt 1 view .LVU195
 667 0008 084A     		ldr	r2, .L62+4
 668 000a 537B     		ldrb	r3, [r2, #13]	@ zero_extendqisi2
 669 000c 43F04003 		orr	r3, r3, #64
 670 0010 5373     		strb	r3, [r2, #13]
 392:Drivers/STM32L1xx_HAL_Driver/Src/stm32l1xx_hal_rcc_ex.c **** 
 393:Drivers/STM32L1xx_HAL_Driver/Src/stm32l1xx_hal_rcc_ex.c ****   /* Enable IT on EXTI Line 19 */
 394:Drivers/STM32L1xx_HAL_Driver/Src/stm32l1xx_hal_rcc_ex.c ****   __HAL_RCC_LSECSS_EXTI_ENABLE_IT();
 671              		.loc 1 394 3 view .LVU196
 672 0012 074B     		ldr	r3, .L62+8
 673 0014 1A68     		ldr	r2, [r3]
 674 0016 42F40022 		orr	r2, r2, #524288
 675 001a 1A60     		str	r2, [r3]
 395:Drivers/STM32L1xx_HAL_Driver/Src/stm32l1xx_hal_rcc_ex.c ****   __HAL_RCC_LSECSS_EXTI_ENABLE_RISING_EDGE();
 676              		.loc 1 395 3 view .LVU197
 677 001c 9A68     		ldr	r2, [r3, #8]
 678 001e 42F40022 		orr	r2, r2, #524288
 679 0022 9A60     		str	r2, [r3, #8]
 396:Drivers/STM32L1xx_HAL_Driver/Src/stm32l1xx_hal_rcc_ex.c **** }
 680              		.loc 1 396 1 is_stmt 0 view .LVU198
 681 0024 7047     		bx	lr
 682              	.L63:
 683 0026 00BF     		.align	2
 684              	.L62:
 685 0028 00004742 		.word	1111949312
 686 002c 00380240 		.word	1073887232
 687 0030 00040140 		.word	1073808384
 688              		.cfi_endproc
 689              	.LFE77:
ARM GAS  /tmp/ccwboCco.s 			page 21


 691              		.section	.text.HAL_RCCEx_LSECSS_Callback,"ax",%progbits
 692              		.align	1
 693              		.weak	HAL_RCCEx_LSECSS_Callback
 694              		.syntax unified
 695              		.thumb
 696              		.thumb_func
 698              	HAL_RCCEx_LSECSS_Callback:
 699              	.LFB79:
 397:Drivers/STM32L1xx_HAL_Driver/Src/stm32l1xx_hal_rcc_ex.c **** 
 398:Drivers/STM32L1xx_HAL_Driver/Src/stm32l1xx_hal_rcc_ex.c **** /**
 399:Drivers/STM32L1xx_HAL_Driver/Src/stm32l1xx_hal_rcc_ex.c ****   * @brief Handle the RCC LSE Clock Security System interrupt request.
 400:Drivers/STM32L1xx_HAL_Driver/Src/stm32l1xx_hal_rcc_ex.c ****   * @retval None
 401:Drivers/STM32L1xx_HAL_Driver/Src/stm32l1xx_hal_rcc_ex.c ****   */
 402:Drivers/STM32L1xx_HAL_Driver/Src/stm32l1xx_hal_rcc_ex.c **** void HAL_RCCEx_LSECSS_IRQHandler(void)
 403:Drivers/STM32L1xx_HAL_Driver/Src/stm32l1xx_hal_rcc_ex.c **** {
 404:Drivers/STM32L1xx_HAL_Driver/Src/stm32l1xx_hal_rcc_ex.c ****   /* Check RCC LSE CSSF flag  */
 405:Drivers/STM32L1xx_HAL_Driver/Src/stm32l1xx_hal_rcc_ex.c ****   if(__HAL_RCC_GET_IT(RCC_IT_LSECSS))
 406:Drivers/STM32L1xx_HAL_Driver/Src/stm32l1xx_hal_rcc_ex.c ****   {
 407:Drivers/STM32L1xx_HAL_Driver/Src/stm32l1xx_hal_rcc_ex.c ****     /* RCC LSE Clock Security System interrupt user callback */
 408:Drivers/STM32L1xx_HAL_Driver/Src/stm32l1xx_hal_rcc_ex.c ****     HAL_RCCEx_LSECSS_Callback();
 409:Drivers/STM32L1xx_HAL_Driver/Src/stm32l1xx_hal_rcc_ex.c **** 
 410:Drivers/STM32L1xx_HAL_Driver/Src/stm32l1xx_hal_rcc_ex.c ****     /* Clear RCC LSE CSS pending bit */
 411:Drivers/STM32L1xx_HAL_Driver/Src/stm32l1xx_hal_rcc_ex.c ****     __HAL_RCC_CLEAR_IT(RCC_IT_LSECSS);
 412:Drivers/STM32L1xx_HAL_Driver/Src/stm32l1xx_hal_rcc_ex.c ****   }
 413:Drivers/STM32L1xx_HAL_Driver/Src/stm32l1xx_hal_rcc_ex.c **** }
 414:Drivers/STM32L1xx_HAL_Driver/Src/stm32l1xx_hal_rcc_ex.c **** 
 415:Drivers/STM32L1xx_HAL_Driver/Src/stm32l1xx_hal_rcc_ex.c **** /**
 416:Drivers/STM32L1xx_HAL_Driver/Src/stm32l1xx_hal_rcc_ex.c ****   * @brief  RCCEx LSE Clock Security System interrupt callback.
 417:Drivers/STM32L1xx_HAL_Driver/Src/stm32l1xx_hal_rcc_ex.c ****   * @retval none
 418:Drivers/STM32L1xx_HAL_Driver/Src/stm32l1xx_hal_rcc_ex.c ****   */
 419:Drivers/STM32L1xx_HAL_Driver/Src/stm32l1xx_hal_rcc_ex.c **** __weak void HAL_RCCEx_LSECSS_Callback(void)
 420:Drivers/STM32L1xx_HAL_Driver/Src/stm32l1xx_hal_rcc_ex.c **** {
 700              		.loc 1 420 1 is_stmt 1 view -0
 701              		.cfi_startproc
 702              		@ args = 0, pretend = 0, frame = 0
 703              		@ frame_needed = 0, uses_anonymous_args = 0
 704              		@ link register save eliminated.
 421:Drivers/STM32L1xx_HAL_Driver/Src/stm32l1xx_hal_rcc_ex.c ****   /* NOTE : This function should not be modified, when the callback is needed,
 422:Drivers/STM32L1xx_HAL_Driver/Src/stm32l1xx_hal_rcc_ex.c ****             the @ref HAL_RCCEx_LSECSS_Callback should be implemented in the user file
 423:Drivers/STM32L1xx_HAL_Driver/Src/stm32l1xx_hal_rcc_ex.c ****    */
 424:Drivers/STM32L1xx_HAL_Driver/Src/stm32l1xx_hal_rcc_ex.c **** }
 705              		.loc 1 424 1 view .LVU200
 706 0000 7047     		bx	lr
 707              		.cfi_endproc
 708              	.LFE79:
 710              		.section	.text.HAL_RCCEx_LSECSS_IRQHandler,"ax",%progbits
 711              		.align	1
 712              		.global	HAL_RCCEx_LSECSS_IRQHandler
 713              		.syntax unified
 714              		.thumb
 715              		.thumb_func
 717              	HAL_RCCEx_LSECSS_IRQHandler:
 718              	.LFB78:
 403:Drivers/STM32L1xx_HAL_Driver/Src/stm32l1xx_hal_rcc_ex.c ****   /* Check RCC LSE CSSF flag  */
 719              		.loc 1 403 1 view -0
 720              		.cfi_startproc
 721              		@ args = 0, pretend = 0, frame = 0
ARM GAS  /tmp/ccwboCco.s 			page 22


 722              		@ frame_needed = 0, uses_anonymous_args = 0
 723 0000 08B5     		push	{r3, lr}
 724              	.LCFI3:
 725              		.cfi_def_cfa_offset 8
 726              		.cfi_offset 3, -8
 727              		.cfi_offset 14, -4
 405:Drivers/STM32L1xx_HAL_Driver/Src/stm32l1xx_hal_rcc_ex.c ****   {
 728              		.loc 1 405 3 view .LVU202
 405:Drivers/STM32L1xx_HAL_Driver/Src/stm32l1xx_hal_rcc_ex.c ****   {
 729              		.loc 1 405 6 is_stmt 0 view .LVU203
 730 0002 064B     		ldr	r3, .L69
 731 0004 DB68     		ldr	r3, [r3, #12]
 405:Drivers/STM32L1xx_HAL_Driver/Src/stm32l1xx_hal_rcc_ex.c ****   {
 732              		.loc 1 405 5 view .LVU204
 733 0006 13F0400F 		tst	r3, #64
 734 000a 00D1     		bne	.L68
 735              	.L65:
 413:Drivers/STM32L1xx_HAL_Driver/Src/stm32l1xx_hal_rcc_ex.c **** 
 736              		.loc 1 413 1 view .LVU205
 737 000c 08BD     		pop	{r3, pc}
 738              	.L68:
 408:Drivers/STM32L1xx_HAL_Driver/Src/stm32l1xx_hal_rcc_ex.c **** 
 739              		.loc 1 408 5 is_stmt 1 view .LVU206
 740 000e FFF7FEFF 		bl	HAL_RCCEx_LSECSS_Callback
 741              	.LVL46:
 411:Drivers/STM32L1xx_HAL_Driver/Src/stm32l1xx_hal_rcc_ex.c ****   }
 742              		.loc 1 411 5 view .LVU207
 743 0012 024B     		ldr	r3, .L69
 744 0014 4022     		movs	r2, #64
 745 0016 9A73     		strb	r2, [r3, #14]
 413:Drivers/STM32L1xx_HAL_Driver/Src/stm32l1xx_hal_rcc_ex.c **** 
 746              		.loc 1 413 1 is_stmt 0 view .LVU208
 747 0018 F8E7     		b	.L65
 748              	.L70:
 749 001a 00BF     		.align	2
 750              	.L69:
 751 001c 00380240 		.word	1073887232
 752              		.cfi_endproc
 753              	.LFE78:
 755              		.text
 756              	.Letext0:
 757              		.file 2 "/usr/arm-none-eabi/include/machine/_default_types.h"
 758              		.file 3 "/usr/arm-none-eabi/include/sys/_stdint.h"
 759              		.file 4 "Drivers/CMSIS/Device/ST/STM32L1xx/Include/stm32l152xe.h"
 760              		.file 5 "Drivers/CMSIS/Device/ST/STM32L1xx/Include/stm32l1xx.h"
 761              		.file 6 "Drivers/STM32L1xx_HAL_Driver/Inc/stm32l1xx_hal_def.h"
 762              		.file 7 "Drivers/STM32L1xx_HAL_Driver/Inc/stm32l1xx_hal_rcc_ex.h"
 763              		.file 8 "Drivers/STM32L1xx_HAL_Driver/Inc/stm32l1xx_hal.h"
ARM GAS  /tmp/ccwboCco.s 			page 23

