ARM GAS  /tmp/ccJ0rBCo.s 			page 1


   1              		.cpu cortex-m3
   2              		.eabi_attribute 20, 1
   3              		.eabi_attribute 21, 1
   4              		.eabi_attribute 23, 3
   5              		.eabi_attribute 24, 1
   6              		.eabi_attribute 25, 1
   7              		.eabi_attribute 26, 1
   8              		.eabi_attribute 30, 1
   9              		.eabi_attribute 34, 1
  10              		.eabi_attribute 18, 4
  11              		.file	"stm32l1xx_hal_flash_ramfunc.c"
  12              		.text
  13              	.Ltext0:
  14              		.cfi_sections	.debug_frame
  15              		.section	.RamFunc,"ax",%progbits
  16              		.align	1
  17              		.arch armv7-m
  18              		.syntax unified
  19              		.thumb
  20              		.thumb_func
  21              		.fpu softvfp
  23              	FLASHRAM_SetErrorCode:
  24              	.LFB80:
  25              		.file 1 "Drivers/STM32L1xx_HAL_Driver/Src/stm32l1xx_hal_flash_ramfunc.c"
   1:Drivers/STM32L1xx_HAL_Driver/Src/stm32l1xx_hal_flash_ramfunc.c **** /**
   2:Drivers/STM32L1xx_HAL_Driver/Src/stm32l1xx_hal_flash_ramfunc.c ****   ******************************************************************************
   3:Drivers/STM32L1xx_HAL_Driver/Src/stm32l1xx_hal_flash_ramfunc.c ****   * @file    stm32l1xx_hal_flash_ramfunc.c
   4:Drivers/STM32L1xx_HAL_Driver/Src/stm32l1xx_hal_flash_ramfunc.c ****   * @author  MCD Application Team
   5:Drivers/STM32L1xx_HAL_Driver/Src/stm32l1xx_hal_flash_ramfunc.c ****   * @brief   FLASH RAMFUNC driver.
   6:Drivers/STM32L1xx_HAL_Driver/Src/stm32l1xx_hal_flash_ramfunc.c ****   *          This file provides a Flash firmware functions which should be 
   7:Drivers/STM32L1xx_HAL_Driver/Src/stm32l1xx_hal_flash_ramfunc.c ****   *          executed from internal SRAM
   8:Drivers/STM32L1xx_HAL_Driver/Src/stm32l1xx_hal_flash_ramfunc.c ****   *
   9:Drivers/STM32L1xx_HAL_Driver/Src/stm32l1xx_hal_flash_ramfunc.c ****   *  @verbatim
  10:Drivers/STM32L1xx_HAL_Driver/Src/stm32l1xx_hal_flash_ramfunc.c **** 
  11:Drivers/STM32L1xx_HAL_Driver/Src/stm32l1xx_hal_flash_ramfunc.c ****     *** ARM Compiler ***
  12:Drivers/STM32L1xx_HAL_Driver/Src/stm32l1xx_hal_flash_ramfunc.c ****     --------------------
  13:Drivers/STM32L1xx_HAL_Driver/Src/stm32l1xx_hal_flash_ramfunc.c ****     [..] RAM functions are defined using the toolchain options. 
  14:Drivers/STM32L1xx_HAL_Driver/Src/stm32l1xx_hal_flash_ramfunc.c ****          Functions that are be executed in RAM should reside in a separate
  15:Drivers/STM32L1xx_HAL_Driver/Src/stm32l1xx_hal_flash_ramfunc.c ****          source module. Using the 'Options for File' dialog you can simply change
  16:Drivers/STM32L1xx_HAL_Driver/Src/stm32l1xx_hal_flash_ramfunc.c ****          the 'Code / Const' area of a module to a memory space in physical RAM.
  17:Drivers/STM32L1xx_HAL_Driver/Src/stm32l1xx_hal_flash_ramfunc.c ****          Available memory areas are declared in the 'Target' tab of the 
  18:Drivers/STM32L1xx_HAL_Driver/Src/stm32l1xx_hal_flash_ramfunc.c ****          Options for Target' dialog.
  19:Drivers/STM32L1xx_HAL_Driver/Src/stm32l1xx_hal_flash_ramfunc.c **** 
  20:Drivers/STM32L1xx_HAL_Driver/Src/stm32l1xx_hal_flash_ramfunc.c ****     *** ICCARM Compiler ***
  21:Drivers/STM32L1xx_HAL_Driver/Src/stm32l1xx_hal_flash_ramfunc.c ****     -----------------------
  22:Drivers/STM32L1xx_HAL_Driver/Src/stm32l1xx_hal_flash_ramfunc.c ****     [..] RAM functions are defined using a specific toolchain keyword "__ramfunc".
  23:Drivers/STM32L1xx_HAL_Driver/Src/stm32l1xx_hal_flash_ramfunc.c **** 
  24:Drivers/STM32L1xx_HAL_Driver/Src/stm32l1xx_hal_flash_ramfunc.c ****     *** GNU Compiler ***
  25:Drivers/STM32L1xx_HAL_Driver/Src/stm32l1xx_hal_flash_ramfunc.c ****     --------------------
  26:Drivers/STM32L1xx_HAL_Driver/Src/stm32l1xx_hal_flash_ramfunc.c ****     [..] RAM functions are defined using a specific toolchain attribute
  27:Drivers/STM32L1xx_HAL_Driver/Src/stm32l1xx_hal_flash_ramfunc.c ****          "__attribute__((section(".RamFunc")))".
  28:Drivers/STM32L1xx_HAL_Driver/Src/stm32l1xx_hal_flash_ramfunc.c **** 
  29:Drivers/STM32L1xx_HAL_Driver/Src/stm32l1xx_hal_flash_ramfunc.c **** @endverbatim
  30:Drivers/STM32L1xx_HAL_Driver/Src/stm32l1xx_hal_flash_ramfunc.c ****   ******************************************************************************
  31:Drivers/STM32L1xx_HAL_Driver/Src/stm32l1xx_hal_flash_ramfunc.c ****   * @attention
  32:Drivers/STM32L1xx_HAL_Driver/Src/stm32l1xx_hal_flash_ramfunc.c ****   *
  33:Drivers/STM32L1xx_HAL_Driver/Src/stm32l1xx_hal_flash_ramfunc.c ****   * Copyright (c) 2017 STMicroelectronics.
ARM GAS  /tmp/ccJ0rBCo.s 			page 2


  34:Drivers/STM32L1xx_HAL_Driver/Src/stm32l1xx_hal_flash_ramfunc.c ****   * All rights reserved.
  35:Drivers/STM32L1xx_HAL_Driver/Src/stm32l1xx_hal_flash_ramfunc.c ****   *
  36:Drivers/STM32L1xx_HAL_Driver/Src/stm32l1xx_hal_flash_ramfunc.c ****   * This software is licensed under terms that can be found in the LICENSE file in
  37:Drivers/STM32L1xx_HAL_Driver/Src/stm32l1xx_hal_flash_ramfunc.c ****   * the root directory of this software component.
  38:Drivers/STM32L1xx_HAL_Driver/Src/stm32l1xx_hal_flash_ramfunc.c ****   * If no LICENSE file comes with this software, it is provided AS-IS.
  39:Drivers/STM32L1xx_HAL_Driver/Src/stm32l1xx_hal_flash_ramfunc.c ****   ******************************************************************************
  40:Drivers/STM32L1xx_HAL_Driver/Src/stm32l1xx_hal_flash_ramfunc.c ****   */
  41:Drivers/STM32L1xx_HAL_Driver/Src/stm32l1xx_hal_flash_ramfunc.c **** 
  42:Drivers/STM32L1xx_HAL_Driver/Src/stm32l1xx_hal_flash_ramfunc.c **** /* Includes ------------------------------------------------------------------*/
  43:Drivers/STM32L1xx_HAL_Driver/Src/stm32l1xx_hal_flash_ramfunc.c **** #include "stm32l1xx_hal.h"
  44:Drivers/STM32L1xx_HAL_Driver/Src/stm32l1xx_hal_flash_ramfunc.c **** 
  45:Drivers/STM32L1xx_HAL_Driver/Src/stm32l1xx_hal_flash_ramfunc.c **** /** @addtogroup STM32L1xx_HAL_Driver
  46:Drivers/STM32L1xx_HAL_Driver/Src/stm32l1xx_hal_flash_ramfunc.c ****   * @{
  47:Drivers/STM32L1xx_HAL_Driver/Src/stm32l1xx_hal_flash_ramfunc.c ****   */
  48:Drivers/STM32L1xx_HAL_Driver/Src/stm32l1xx_hal_flash_ramfunc.c **** 
  49:Drivers/STM32L1xx_HAL_Driver/Src/stm32l1xx_hal_flash_ramfunc.c **** #ifdef HAL_FLASH_MODULE_ENABLED
  50:Drivers/STM32L1xx_HAL_Driver/Src/stm32l1xx_hal_flash_ramfunc.c **** 
  51:Drivers/STM32L1xx_HAL_Driver/Src/stm32l1xx_hal_flash_ramfunc.c **** /** @addtogroup FLASH
  52:Drivers/STM32L1xx_HAL_Driver/Src/stm32l1xx_hal_flash_ramfunc.c ****   * @{
  53:Drivers/STM32L1xx_HAL_Driver/Src/stm32l1xx_hal_flash_ramfunc.c ****   */
  54:Drivers/STM32L1xx_HAL_Driver/Src/stm32l1xx_hal_flash_ramfunc.c **** /** @addtogroup FLASH_Private_Variables
  55:Drivers/STM32L1xx_HAL_Driver/Src/stm32l1xx_hal_flash_ramfunc.c ****  * @{
  56:Drivers/STM32L1xx_HAL_Driver/Src/stm32l1xx_hal_flash_ramfunc.c ****  */
  57:Drivers/STM32L1xx_HAL_Driver/Src/stm32l1xx_hal_flash_ramfunc.c **** extern FLASH_ProcessTypeDef pFlash;
  58:Drivers/STM32L1xx_HAL_Driver/Src/stm32l1xx_hal_flash_ramfunc.c **** /**
  59:Drivers/STM32L1xx_HAL_Driver/Src/stm32l1xx_hal_flash_ramfunc.c ****   * @}
  60:Drivers/STM32L1xx_HAL_Driver/Src/stm32l1xx_hal_flash_ramfunc.c ****   */
  61:Drivers/STM32L1xx_HAL_Driver/Src/stm32l1xx_hal_flash_ramfunc.c **** 
  62:Drivers/STM32L1xx_HAL_Driver/Src/stm32l1xx_hal_flash_ramfunc.c **** /**
  63:Drivers/STM32L1xx_HAL_Driver/Src/stm32l1xx_hal_flash_ramfunc.c ****   * @}
  64:Drivers/STM32L1xx_HAL_Driver/Src/stm32l1xx_hal_flash_ramfunc.c ****   */
  65:Drivers/STM32L1xx_HAL_Driver/Src/stm32l1xx_hal_flash_ramfunc.c ****   
  66:Drivers/STM32L1xx_HAL_Driver/Src/stm32l1xx_hal_flash_ramfunc.c **** /** @defgroup FLASH_RAMFUNC FLASH_RAMFUNC
  67:Drivers/STM32L1xx_HAL_Driver/Src/stm32l1xx_hal_flash_ramfunc.c ****   * @brief FLASH functions executed from RAM
  68:Drivers/STM32L1xx_HAL_Driver/Src/stm32l1xx_hal_flash_ramfunc.c ****   * @{
  69:Drivers/STM32L1xx_HAL_Driver/Src/stm32l1xx_hal_flash_ramfunc.c ****   */ 
  70:Drivers/STM32L1xx_HAL_Driver/Src/stm32l1xx_hal_flash_ramfunc.c **** 
  71:Drivers/STM32L1xx_HAL_Driver/Src/stm32l1xx_hal_flash_ramfunc.c **** 
  72:Drivers/STM32L1xx_HAL_Driver/Src/stm32l1xx_hal_flash_ramfunc.c **** /* Private typedef -----------------------------------------------------------*/
  73:Drivers/STM32L1xx_HAL_Driver/Src/stm32l1xx_hal_flash_ramfunc.c **** /* Private define ------------------------------------------------------------*/
  74:Drivers/STM32L1xx_HAL_Driver/Src/stm32l1xx_hal_flash_ramfunc.c **** /* Private macro -------------------------------------------------------------*/
  75:Drivers/STM32L1xx_HAL_Driver/Src/stm32l1xx_hal_flash_ramfunc.c **** /* Private variables ---------------------------------------------------------*/
  76:Drivers/STM32L1xx_HAL_Driver/Src/stm32l1xx_hal_flash_ramfunc.c **** /* Private function prototypes -----------------------------------------------*/
  77:Drivers/STM32L1xx_HAL_Driver/Src/stm32l1xx_hal_flash_ramfunc.c **** /** @defgroup FLASH_RAMFUNC_Private_Functions FLASH RAM Private Functions
  78:Drivers/STM32L1xx_HAL_Driver/Src/stm32l1xx_hal_flash_ramfunc.c ****  * @{
  79:Drivers/STM32L1xx_HAL_Driver/Src/stm32l1xx_hal_flash_ramfunc.c ****  */
  80:Drivers/STM32L1xx_HAL_Driver/Src/stm32l1xx_hal_flash_ramfunc.c **** 
  81:Drivers/STM32L1xx_HAL_Driver/Src/stm32l1xx_hal_flash_ramfunc.c **** static __RAM_FUNC HAL_StatusTypeDef FLASHRAM_WaitForLastOperation(uint32_t Timeout);
  82:Drivers/STM32L1xx_HAL_Driver/Src/stm32l1xx_hal_flash_ramfunc.c **** static __RAM_FUNC HAL_StatusTypeDef FLASHRAM_SetErrorCode(void);
  83:Drivers/STM32L1xx_HAL_Driver/Src/stm32l1xx_hal_flash_ramfunc.c **** 
  84:Drivers/STM32L1xx_HAL_Driver/Src/stm32l1xx_hal_flash_ramfunc.c **** /**
  85:Drivers/STM32L1xx_HAL_Driver/Src/stm32l1xx_hal_flash_ramfunc.c ****   * @}
  86:Drivers/STM32L1xx_HAL_Driver/Src/stm32l1xx_hal_flash_ramfunc.c ****   */
  87:Drivers/STM32L1xx_HAL_Driver/Src/stm32l1xx_hal_flash_ramfunc.c **** 
  88:Drivers/STM32L1xx_HAL_Driver/Src/stm32l1xx_hal_flash_ramfunc.c **** /* Private functions ---------------------------------------------------------*/
  89:Drivers/STM32L1xx_HAL_Driver/Src/stm32l1xx_hal_flash_ramfunc.c ****  
  90:Drivers/STM32L1xx_HAL_Driver/Src/stm32l1xx_hal_flash_ramfunc.c **** /** @defgroup FLASH_RAMFUNC_Exported_Functions FLASH RAM Exported Functions
ARM GAS  /tmp/ccJ0rBCo.s 			page 3


  91:Drivers/STM32L1xx_HAL_Driver/Src/stm32l1xx_hal_flash_ramfunc.c ****  *
  92:Drivers/STM32L1xx_HAL_Driver/Src/stm32l1xx_hal_flash_ramfunc.c **** @verbatim  
  93:Drivers/STM32L1xx_HAL_Driver/Src/stm32l1xx_hal_flash_ramfunc.c ****  ===============================================================================
  94:Drivers/STM32L1xx_HAL_Driver/Src/stm32l1xx_hal_flash_ramfunc.c ****                       ##### ramfunc functions #####
  95:Drivers/STM32L1xx_HAL_Driver/Src/stm32l1xx_hal_flash_ramfunc.c ****  ===============================================================================  
  96:Drivers/STM32L1xx_HAL_Driver/Src/stm32l1xx_hal_flash_ramfunc.c ****     [..]
  97:Drivers/STM32L1xx_HAL_Driver/Src/stm32l1xx_hal_flash_ramfunc.c ****     This subsection provides a set of functions that should be executed from RAM 
  98:Drivers/STM32L1xx_HAL_Driver/Src/stm32l1xx_hal_flash_ramfunc.c ****     transfers.
  99:Drivers/STM32L1xx_HAL_Driver/Src/stm32l1xx_hal_flash_ramfunc.c **** 
 100:Drivers/STM32L1xx_HAL_Driver/Src/stm32l1xx_hal_flash_ramfunc.c **** @endverbatim
 101:Drivers/STM32L1xx_HAL_Driver/Src/stm32l1xx_hal_flash_ramfunc.c ****   * @{
 102:Drivers/STM32L1xx_HAL_Driver/Src/stm32l1xx_hal_flash_ramfunc.c ****   */ 
 103:Drivers/STM32L1xx_HAL_Driver/Src/stm32l1xx_hal_flash_ramfunc.c **** 
 104:Drivers/STM32L1xx_HAL_Driver/Src/stm32l1xx_hal_flash_ramfunc.c **** /** @defgroup FLASH_RAMFUNC_Exported_Functions_Group1 Peripheral features functions 
 105:Drivers/STM32L1xx_HAL_Driver/Src/stm32l1xx_hal_flash_ramfunc.c ****   * @{
 106:Drivers/STM32L1xx_HAL_Driver/Src/stm32l1xx_hal_flash_ramfunc.c ****   */  
 107:Drivers/STM32L1xx_HAL_Driver/Src/stm32l1xx_hal_flash_ramfunc.c **** 
 108:Drivers/STM32L1xx_HAL_Driver/Src/stm32l1xx_hal_flash_ramfunc.c **** /**
 109:Drivers/STM32L1xx_HAL_Driver/Src/stm32l1xx_hal_flash_ramfunc.c ****   * @brief  Enable  the power down mode during RUN mode.
 110:Drivers/STM32L1xx_HAL_Driver/Src/stm32l1xx_hal_flash_ramfunc.c ****   * @note  This function can be used only when the user code is running from Internal SRAM.
 111:Drivers/STM32L1xx_HAL_Driver/Src/stm32l1xx_hal_flash_ramfunc.c ****   * @retval HAL status
 112:Drivers/STM32L1xx_HAL_Driver/Src/stm32l1xx_hal_flash_ramfunc.c ****   */
 113:Drivers/STM32L1xx_HAL_Driver/Src/stm32l1xx_hal_flash_ramfunc.c **** __RAM_FUNC HAL_StatusTypeDef HAL_FLASHEx_EnableRunPowerDown(void)
 114:Drivers/STM32L1xx_HAL_Driver/Src/stm32l1xx_hal_flash_ramfunc.c **** {
 115:Drivers/STM32L1xx_HAL_Driver/Src/stm32l1xx_hal_flash_ramfunc.c ****   /* Enable the Power Down in Run mode*/
 116:Drivers/STM32L1xx_HAL_Driver/Src/stm32l1xx_hal_flash_ramfunc.c ****   __HAL_FLASH_POWER_DOWN_ENABLE();
 117:Drivers/STM32L1xx_HAL_Driver/Src/stm32l1xx_hal_flash_ramfunc.c **** 
 118:Drivers/STM32L1xx_HAL_Driver/Src/stm32l1xx_hal_flash_ramfunc.c ****   return HAL_OK;
 119:Drivers/STM32L1xx_HAL_Driver/Src/stm32l1xx_hal_flash_ramfunc.c **** }
 120:Drivers/STM32L1xx_HAL_Driver/Src/stm32l1xx_hal_flash_ramfunc.c **** 
 121:Drivers/STM32L1xx_HAL_Driver/Src/stm32l1xx_hal_flash_ramfunc.c **** /**
 122:Drivers/STM32L1xx_HAL_Driver/Src/stm32l1xx_hal_flash_ramfunc.c ****   * @brief  Disable the power down mode during RUN mode.
 123:Drivers/STM32L1xx_HAL_Driver/Src/stm32l1xx_hal_flash_ramfunc.c ****   * @note  This function can be used only when the user code is running from Internal SRAM.
 124:Drivers/STM32L1xx_HAL_Driver/Src/stm32l1xx_hal_flash_ramfunc.c ****   * @retval HAL status
 125:Drivers/STM32L1xx_HAL_Driver/Src/stm32l1xx_hal_flash_ramfunc.c ****   */
 126:Drivers/STM32L1xx_HAL_Driver/Src/stm32l1xx_hal_flash_ramfunc.c **** __RAM_FUNC HAL_StatusTypeDef HAL_FLASHEx_DisableRunPowerDown(void)
 127:Drivers/STM32L1xx_HAL_Driver/Src/stm32l1xx_hal_flash_ramfunc.c **** {
 128:Drivers/STM32L1xx_HAL_Driver/Src/stm32l1xx_hal_flash_ramfunc.c ****   /* Disable the Power Down in Run mode*/
 129:Drivers/STM32L1xx_HAL_Driver/Src/stm32l1xx_hal_flash_ramfunc.c ****   __HAL_FLASH_POWER_DOWN_DISABLE();
 130:Drivers/STM32L1xx_HAL_Driver/Src/stm32l1xx_hal_flash_ramfunc.c **** 
 131:Drivers/STM32L1xx_HAL_Driver/Src/stm32l1xx_hal_flash_ramfunc.c ****   return HAL_OK;  
 132:Drivers/STM32L1xx_HAL_Driver/Src/stm32l1xx_hal_flash_ramfunc.c **** }
 133:Drivers/STM32L1xx_HAL_Driver/Src/stm32l1xx_hal_flash_ramfunc.c **** 
 134:Drivers/STM32L1xx_HAL_Driver/Src/stm32l1xx_hal_flash_ramfunc.c **** /**
 135:Drivers/STM32L1xx_HAL_Driver/Src/stm32l1xx_hal_flash_ramfunc.c ****   * @}
 136:Drivers/STM32L1xx_HAL_Driver/Src/stm32l1xx_hal_flash_ramfunc.c ****   */
 137:Drivers/STM32L1xx_HAL_Driver/Src/stm32l1xx_hal_flash_ramfunc.c **** 
 138:Drivers/STM32L1xx_HAL_Driver/Src/stm32l1xx_hal_flash_ramfunc.c **** /** @defgroup FLASH_RAMFUNC_Exported_Functions_Group2 Programming and erasing operation functions 
 139:Drivers/STM32L1xx_HAL_Driver/Src/stm32l1xx_hal_flash_ramfunc.c ****  *
 140:Drivers/STM32L1xx_HAL_Driver/Src/stm32l1xx_hal_flash_ramfunc.c **** @verbatim  
 141:Drivers/STM32L1xx_HAL_Driver/Src/stm32l1xx_hal_flash_ramfunc.c **** @endverbatim
 142:Drivers/STM32L1xx_HAL_Driver/Src/stm32l1xx_hal_flash_ramfunc.c ****   * @{
 143:Drivers/STM32L1xx_HAL_Driver/Src/stm32l1xx_hal_flash_ramfunc.c ****   */
 144:Drivers/STM32L1xx_HAL_Driver/Src/stm32l1xx_hal_flash_ramfunc.c **** 
 145:Drivers/STM32L1xx_HAL_Driver/Src/stm32l1xx_hal_flash_ramfunc.c **** #if defined(FLASH_PECR_PARALLBANK)
 146:Drivers/STM32L1xx_HAL_Driver/Src/stm32l1xx_hal_flash_ramfunc.c **** /**
 147:Drivers/STM32L1xx_HAL_Driver/Src/stm32l1xx_hal_flash_ramfunc.c ****   * @brief  Erases a specified 2 pages in program memory in parallel.
ARM GAS  /tmp/ccJ0rBCo.s 			page 4


 148:Drivers/STM32L1xx_HAL_Driver/Src/stm32l1xx_hal_flash_ramfunc.c ****   * @note   This function can be used only for STM32L151xD, STM32L152xD), STM32L162xD and Cat5  dev
 149:Drivers/STM32L1xx_HAL_Driver/Src/stm32l1xx_hal_flash_ramfunc.c ****   *         To correctly run this function, the @ref HAL_FLASH_Unlock() function
 150:Drivers/STM32L1xx_HAL_Driver/Src/stm32l1xx_hal_flash_ramfunc.c ****   *         must be called before.
 151:Drivers/STM32L1xx_HAL_Driver/Src/stm32l1xx_hal_flash_ramfunc.c ****   *         Call the @ref HAL_FLASH_Lock() to disable the flash memory access 
 152:Drivers/STM32L1xx_HAL_Driver/Src/stm32l1xx_hal_flash_ramfunc.c ****   *        (recommended to protect the FLASH memory against possible unwanted operation).
 153:Drivers/STM32L1xx_HAL_Driver/Src/stm32l1xx_hal_flash_ramfunc.c ****   * @param  Page_Address1: The page address in program memory to be erased in 
 154:Drivers/STM32L1xx_HAL_Driver/Src/stm32l1xx_hal_flash_ramfunc.c ****   *         the first Bank (BANK1). This parameter should be between FLASH_BASE
 155:Drivers/STM32L1xx_HAL_Driver/Src/stm32l1xx_hal_flash_ramfunc.c ****   *         and FLASH_BANK1_END.
 156:Drivers/STM32L1xx_HAL_Driver/Src/stm32l1xx_hal_flash_ramfunc.c ****   * @param  Page_Address2: The page address in program memory to be erased in 
 157:Drivers/STM32L1xx_HAL_Driver/Src/stm32l1xx_hal_flash_ramfunc.c ****   *         the second Bank (BANK2). This parameter should be between FLASH_BANK2_BASE
 158:Drivers/STM32L1xx_HAL_Driver/Src/stm32l1xx_hal_flash_ramfunc.c ****   *         and FLASH_BANK2_END.
 159:Drivers/STM32L1xx_HAL_Driver/Src/stm32l1xx_hal_flash_ramfunc.c ****   * @note   A Page is erased in the Program memory only if the address to load 
 160:Drivers/STM32L1xx_HAL_Driver/Src/stm32l1xx_hal_flash_ramfunc.c ****   *         is the start address of a page (multiple of @ref FLASH_PAGE_SIZE bytes).
 161:Drivers/STM32L1xx_HAL_Driver/Src/stm32l1xx_hal_flash_ramfunc.c ****   * @retval HAL status
 162:Drivers/STM32L1xx_HAL_Driver/Src/stm32l1xx_hal_flash_ramfunc.c ****   */
 163:Drivers/STM32L1xx_HAL_Driver/Src/stm32l1xx_hal_flash_ramfunc.c **** __RAM_FUNC HAL_StatusTypeDef HAL_FLASHEx_EraseParallelPage(uint32_t Page_Address1, uint32_t Page_Ad
 164:Drivers/STM32L1xx_HAL_Driver/Src/stm32l1xx_hal_flash_ramfunc.c **** {
 165:Drivers/STM32L1xx_HAL_Driver/Src/stm32l1xx_hal_flash_ramfunc.c ****   HAL_StatusTypeDef status = HAL_OK;
 166:Drivers/STM32L1xx_HAL_Driver/Src/stm32l1xx_hal_flash_ramfunc.c **** 
 167:Drivers/STM32L1xx_HAL_Driver/Src/stm32l1xx_hal_flash_ramfunc.c ****   /* Wait for last operation to be completed */
 168:Drivers/STM32L1xx_HAL_Driver/Src/stm32l1xx_hal_flash_ramfunc.c ****   status = FLASHRAM_WaitForLastOperation(FLASH_TIMEOUT_VALUE);
 169:Drivers/STM32L1xx_HAL_Driver/Src/stm32l1xx_hal_flash_ramfunc.c ****   
 170:Drivers/STM32L1xx_HAL_Driver/Src/stm32l1xx_hal_flash_ramfunc.c ****   if(status == HAL_OK)
 171:Drivers/STM32L1xx_HAL_Driver/Src/stm32l1xx_hal_flash_ramfunc.c ****   {
 172:Drivers/STM32L1xx_HAL_Driver/Src/stm32l1xx_hal_flash_ramfunc.c ****     /* Proceed to erase the page */
 173:Drivers/STM32L1xx_HAL_Driver/Src/stm32l1xx_hal_flash_ramfunc.c ****     SET_BIT(FLASH->PECR, FLASH_PECR_PARALLBANK);
 174:Drivers/STM32L1xx_HAL_Driver/Src/stm32l1xx_hal_flash_ramfunc.c ****     SET_BIT(FLASH->PECR, FLASH_PECR_ERASE);
 175:Drivers/STM32L1xx_HAL_Driver/Src/stm32l1xx_hal_flash_ramfunc.c ****     SET_BIT(FLASH->PECR, FLASH_PECR_PROG);
 176:Drivers/STM32L1xx_HAL_Driver/Src/stm32l1xx_hal_flash_ramfunc.c ****   
 177:Drivers/STM32L1xx_HAL_Driver/Src/stm32l1xx_hal_flash_ramfunc.c ****     /* Write 00000000h to the first word of the first program page to erase */
 178:Drivers/STM32L1xx_HAL_Driver/Src/stm32l1xx_hal_flash_ramfunc.c ****     *(__IO uint32_t *)Page_Address1 = 0x00000000U;
 179:Drivers/STM32L1xx_HAL_Driver/Src/stm32l1xx_hal_flash_ramfunc.c ****     /* Write 00000000h to the first word of the second program page to erase */    
 180:Drivers/STM32L1xx_HAL_Driver/Src/stm32l1xx_hal_flash_ramfunc.c ****     *(__IO uint32_t *)Page_Address2 = 0x00000000U;
 181:Drivers/STM32L1xx_HAL_Driver/Src/stm32l1xx_hal_flash_ramfunc.c ****  
 182:Drivers/STM32L1xx_HAL_Driver/Src/stm32l1xx_hal_flash_ramfunc.c ****     /* Wait for last operation to be completed */
 183:Drivers/STM32L1xx_HAL_Driver/Src/stm32l1xx_hal_flash_ramfunc.c ****     status = FLASHRAM_WaitForLastOperation(FLASH_TIMEOUT_VALUE);
 184:Drivers/STM32L1xx_HAL_Driver/Src/stm32l1xx_hal_flash_ramfunc.c **** 
 185:Drivers/STM32L1xx_HAL_Driver/Src/stm32l1xx_hal_flash_ramfunc.c ****     /* If the erase operation is completed, disable the ERASE, PROG and PARALLBANK bits */
 186:Drivers/STM32L1xx_HAL_Driver/Src/stm32l1xx_hal_flash_ramfunc.c ****     CLEAR_BIT(FLASH->PECR, FLASH_PECR_PROG);
 187:Drivers/STM32L1xx_HAL_Driver/Src/stm32l1xx_hal_flash_ramfunc.c ****     CLEAR_BIT(FLASH->PECR, FLASH_PECR_ERASE);
 188:Drivers/STM32L1xx_HAL_Driver/Src/stm32l1xx_hal_flash_ramfunc.c ****     CLEAR_BIT(FLASH->PECR, FLASH_PECR_PARALLBANK);
 189:Drivers/STM32L1xx_HAL_Driver/Src/stm32l1xx_hal_flash_ramfunc.c ****   }     
 190:Drivers/STM32L1xx_HAL_Driver/Src/stm32l1xx_hal_flash_ramfunc.c ****   /* Return the Erase Status */
 191:Drivers/STM32L1xx_HAL_Driver/Src/stm32l1xx_hal_flash_ramfunc.c ****   return status;
 192:Drivers/STM32L1xx_HAL_Driver/Src/stm32l1xx_hal_flash_ramfunc.c **** }
 193:Drivers/STM32L1xx_HAL_Driver/Src/stm32l1xx_hal_flash_ramfunc.c **** 
 194:Drivers/STM32L1xx_HAL_Driver/Src/stm32l1xx_hal_flash_ramfunc.c **** /**
 195:Drivers/STM32L1xx_HAL_Driver/Src/stm32l1xx_hal_flash_ramfunc.c ****   * @brief  Program 2 half pages in program memory in parallel (half page size is 32 Words).
 196:Drivers/STM32L1xx_HAL_Driver/Src/stm32l1xx_hal_flash_ramfunc.c ****   * @note   This function can be used only for STM32L151xD, STM32L152xD), STM32L162xD and Cat5  dev
 197:Drivers/STM32L1xx_HAL_Driver/Src/stm32l1xx_hal_flash_ramfunc.c ****   * @param  Address1: specifies the first address to be written in the first bank 
 198:Drivers/STM32L1xx_HAL_Driver/Src/stm32l1xx_hal_flash_ramfunc.c ****   *        (BANK1). This parameter should be between FLASH_BASE and (FLASH_BANK1_END - FLASH_PAGE_S
 199:Drivers/STM32L1xx_HAL_Driver/Src/stm32l1xx_hal_flash_ramfunc.c ****   * @param  pBuffer1: pointer to the buffer  containing the data to be  written 
 200:Drivers/STM32L1xx_HAL_Driver/Src/stm32l1xx_hal_flash_ramfunc.c ****   *         to the first half page in the first bank.
 201:Drivers/STM32L1xx_HAL_Driver/Src/stm32l1xx_hal_flash_ramfunc.c ****   * @param  Address2: specifies the second address to be written in the second bank
 202:Drivers/STM32L1xx_HAL_Driver/Src/stm32l1xx_hal_flash_ramfunc.c ****   *        (BANK2). This parameter should be between FLASH_BANK2_BASE and (FLASH_BANK2_END - FLASH_
 203:Drivers/STM32L1xx_HAL_Driver/Src/stm32l1xx_hal_flash_ramfunc.c ****   * @param  pBuffer2: pointer to the buffer containing the data to be  written 
 204:Drivers/STM32L1xx_HAL_Driver/Src/stm32l1xx_hal_flash_ramfunc.c ****   *         to the second half page in the second bank.
ARM GAS  /tmp/ccJ0rBCo.s 			page 5


 205:Drivers/STM32L1xx_HAL_Driver/Src/stm32l1xx_hal_flash_ramfunc.c ****   * @note   To correctly run this function, the @ref HAL_FLASH_Unlock() function
 206:Drivers/STM32L1xx_HAL_Driver/Src/stm32l1xx_hal_flash_ramfunc.c ****   *         must be called before.
 207:Drivers/STM32L1xx_HAL_Driver/Src/stm32l1xx_hal_flash_ramfunc.c ****   *         Call the @ref HAL_FLASH_Lock() to disable the flash memory access  
 208:Drivers/STM32L1xx_HAL_Driver/Src/stm32l1xx_hal_flash_ramfunc.c ****   *         (recommended to protect the FLASH memory against possible unwanted operation).
 209:Drivers/STM32L1xx_HAL_Driver/Src/stm32l1xx_hal_flash_ramfunc.c ****   * @note   Half page write is possible only from SRAM.
 210:Drivers/STM32L1xx_HAL_Driver/Src/stm32l1xx_hal_flash_ramfunc.c ****   * @note   If there are more than 32 words to write, after 32 words another 
 211:Drivers/STM32L1xx_HAL_Driver/Src/stm32l1xx_hal_flash_ramfunc.c ****   *         Half Page programming operation starts and has to be finished.
 212:Drivers/STM32L1xx_HAL_Driver/Src/stm32l1xx_hal_flash_ramfunc.c ****   * @note   A half page is written to the program memory only if the first 
 213:Drivers/STM32L1xx_HAL_Driver/Src/stm32l1xx_hal_flash_ramfunc.c ****   *         address to load is the start address of a half page (multiple of 128 
 214:Drivers/STM32L1xx_HAL_Driver/Src/stm32l1xx_hal_flash_ramfunc.c ****   *         bytes) and the 31 remaining words to load are in the same half page.
 215:Drivers/STM32L1xx_HAL_Driver/Src/stm32l1xx_hal_flash_ramfunc.c ****   * @note   During the Program memory half page write all read operations are 
 216:Drivers/STM32L1xx_HAL_Driver/Src/stm32l1xx_hal_flash_ramfunc.c ****   *         forbidden (this includes DMA read operations and debugger read 
 217:Drivers/STM32L1xx_HAL_Driver/Src/stm32l1xx_hal_flash_ramfunc.c ****   *         operations such as breakpoints, periodic updates, etc.).
 218:Drivers/STM32L1xx_HAL_Driver/Src/stm32l1xx_hal_flash_ramfunc.c ****   * @note   If a PGAERR is set during a Program memory half page write, the 
 219:Drivers/STM32L1xx_HAL_Driver/Src/stm32l1xx_hal_flash_ramfunc.c ****   *         complete write operation is aborted. Software should then reset the 
 220:Drivers/STM32L1xx_HAL_Driver/Src/stm32l1xx_hal_flash_ramfunc.c ****   *         FPRG and PROG/DATA bits and restart the write operation from the 
 221:Drivers/STM32L1xx_HAL_Driver/Src/stm32l1xx_hal_flash_ramfunc.c ****   *         beginning.
 222:Drivers/STM32L1xx_HAL_Driver/Src/stm32l1xx_hal_flash_ramfunc.c ****   * @retval HAL status
 223:Drivers/STM32L1xx_HAL_Driver/Src/stm32l1xx_hal_flash_ramfunc.c ****   */
 224:Drivers/STM32L1xx_HAL_Driver/Src/stm32l1xx_hal_flash_ramfunc.c **** __RAM_FUNC HAL_StatusTypeDef HAL_FLASHEx_ProgramParallelHalfPage(uint32_t Address1, uint32_t* pBuff
 225:Drivers/STM32L1xx_HAL_Driver/Src/stm32l1xx_hal_flash_ramfunc.c **** {
 226:Drivers/STM32L1xx_HAL_Driver/Src/stm32l1xx_hal_flash_ramfunc.c ****   uint32_t primask_bit;
 227:Drivers/STM32L1xx_HAL_Driver/Src/stm32l1xx_hal_flash_ramfunc.c ****   uint32_t count = 0U; 
 228:Drivers/STM32L1xx_HAL_Driver/Src/stm32l1xx_hal_flash_ramfunc.c ****   HAL_StatusTypeDef status = HAL_OK;
 229:Drivers/STM32L1xx_HAL_Driver/Src/stm32l1xx_hal_flash_ramfunc.c **** 
 230:Drivers/STM32L1xx_HAL_Driver/Src/stm32l1xx_hal_flash_ramfunc.c ****   /* Wait for last operation to be completed */
 231:Drivers/STM32L1xx_HAL_Driver/Src/stm32l1xx_hal_flash_ramfunc.c ****   status = FLASHRAM_WaitForLastOperation(FLASH_TIMEOUT_VALUE);
 232:Drivers/STM32L1xx_HAL_Driver/Src/stm32l1xx_hal_flash_ramfunc.c ****   
 233:Drivers/STM32L1xx_HAL_Driver/Src/stm32l1xx_hal_flash_ramfunc.c ****   if(status == HAL_OK)
 234:Drivers/STM32L1xx_HAL_Driver/Src/stm32l1xx_hal_flash_ramfunc.c ****   {
 235:Drivers/STM32L1xx_HAL_Driver/Src/stm32l1xx_hal_flash_ramfunc.c ****     /* Disable all IRQs */
 236:Drivers/STM32L1xx_HAL_Driver/Src/stm32l1xx_hal_flash_ramfunc.c ****     primask_bit = __get_PRIMASK();
 237:Drivers/STM32L1xx_HAL_Driver/Src/stm32l1xx_hal_flash_ramfunc.c ****     __disable_irq();
 238:Drivers/STM32L1xx_HAL_Driver/Src/stm32l1xx_hal_flash_ramfunc.c ****     
 239:Drivers/STM32L1xx_HAL_Driver/Src/stm32l1xx_hal_flash_ramfunc.c ****     /* Proceed to program the new half page */
 240:Drivers/STM32L1xx_HAL_Driver/Src/stm32l1xx_hal_flash_ramfunc.c ****     SET_BIT(FLASH->PECR, FLASH_PECR_PARALLBANK);
 241:Drivers/STM32L1xx_HAL_Driver/Src/stm32l1xx_hal_flash_ramfunc.c ****     SET_BIT(FLASH->PECR, FLASH_PECR_FPRG);
 242:Drivers/STM32L1xx_HAL_Driver/Src/stm32l1xx_hal_flash_ramfunc.c ****     SET_BIT(FLASH->PECR, FLASH_PECR_PROG);
 243:Drivers/STM32L1xx_HAL_Driver/Src/stm32l1xx_hal_flash_ramfunc.c **** 
 244:Drivers/STM32L1xx_HAL_Driver/Src/stm32l1xx_hal_flash_ramfunc.c ****     /* Write the first half page directly with 32 different words */
 245:Drivers/STM32L1xx_HAL_Driver/Src/stm32l1xx_hal_flash_ramfunc.c ****     while(count < 32U)
 246:Drivers/STM32L1xx_HAL_Driver/Src/stm32l1xx_hal_flash_ramfunc.c ****     {
 247:Drivers/STM32L1xx_HAL_Driver/Src/stm32l1xx_hal_flash_ramfunc.c ****       *(__IO uint32_t*) ((uint32_t)(Address1 + (4 * count))) = *pBuffer1;
 248:Drivers/STM32L1xx_HAL_Driver/Src/stm32l1xx_hal_flash_ramfunc.c ****       pBuffer1++;
 249:Drivers/STM32L1xx_HAL_Driver/Src/stm32l1xx_hal_flash_ramfunc.c ****       count ++;  
 250:Drivers/STM32L1xx_HAL_Driver/Src/stm32l1xx_hal_flash_ramfunc.c ****     }
 251:Drivers/STM32L1xx_HAL_Driver/Src/stm32l1xx_hal_flash_ramfunc.c ****     
 252:Drivers/STM32L1xx_HAL_Driver/Src/stm32l1xx_hal_flash_ramfunc.c ****     /* Write the second half page directly with 32 different words */
 253:Drivers/STM32L1xx_HAL_Driver/Src/stm32l1xx_hal_flash_ramfunc.c ****     count = 0U;
 254:Drivers/STM32L1xx_HAL_Driver/Src/stm32l1xx_hal_flash_ramfunc.c ****     while(count < 32U)
 255:Drivers/STM32L1xx_HAL_Driver/Src/stm32l1xx_hal_flash_ramfunc.c ****     {
 256:Drivers/STM32L1xx_HAL_Driver/Src/stm32l1xx_hal_flash_ramfunc.c ****       *(__IO uint32_t*) ((uint32_t)(Address2 + (4 * count))) = *pBuffer2;
 257:Drivers/STM32L1xx_HAL_Driver/Src/stm32l1xx_hal_flash_ramfunc.c ****       pBuffer2++;
 258:Drivers/STM32L1xx_HAL_Driver/Src/stm32l1xx_hal_flash_ramfunc.c ****       count ++;  
 259:Drivers/STM32L1xx_HAL_Driver/Src/stm32l1xx_hal_flash_ramfunc.c ****     }
 260:Drivers/STM32L1xx_HAL_Driver/Src/stm32l1xx_hal_flash_ramfunc.c ****     
 261:Drivers/STM32L1xx_HAL_Driver/Src/stm32l1xx_hal_flash_ramfunc.c ****     /* Wait for last operation to be completed */
ARM GAS  /tmp/ccJ0rBCo.s 			page 6


 262:Drivers/STM32L1xx_HAL_Driver/Src/stm32l1xx_hal_flash_ramfunc.c ****     status = FLASHRAM_WaitForLastOperation(FLASH_TIMEOUT_VALUE);
 263:Drivers/STM32L1xx_HAL_Driver/Src/stm32l1xx_hal_flash_ramfunc.c ****     
 264:Drivers/STM32L1xx_HAL_Driver/Src/stm32l1xx_hal_flash_ramfunc.c ****     /* if the write operation is completed, disable the PROG, FPRG and PARALLBANK bits */
 265:Drivers/STM32L1xx_HAL_Driver/Src/stm32l1xx_hal_flash_ramfunc.c ****     CLEAR_BIT(FLASH->PECR, FLASH_PECR_PROG);
 266:Drivers/STM32L1xx_HAL_Driver/Src/stm32l1xx_hal_flash_ramfunc.c ****     CLEAR_BIT(FLASH->PECR, FLASH_PECR_FPRG);
 267:Drivers/STM32L1xx_HAL_Driver/Src/stm32l1xx_hal_flash_ramfunc.c ****     CLEAR_BIT(FLASH->PECR, FLASH_PECR_PARALLBANK);
 268:Drivers/STM32L1xx_HAL_Driver/Src/stm32l1xx_hal_flash_ramfunc.c **** 
 269:Drivers/STM32L1xx_HAL_Driver/Src/stm32l1xx_hal_flash_ramfunc.c ****     /* Enable IRQs */
 270:Drivers/STM32L1xx_HAL_Driver/Src/stm32l1xx_hal_flash_ramfunc.c ****     __set_PRIMASK(primask_bit);    
 271:Drivers/STM32L1xx_HAL_Driver/Src/stm32l1xx_hal_flash_ramfunc.c ****   }
 272:Drivers/STM32L1xx_HAL_Driver/Src/stm32l1xx_hal_flash_ramfunc.c **** 
 273:Drivers/STM32L1xx_HAL_Driver/Src/stm32l1xx_hal_flash_ramfunc.c ****   /* Return the Write Status */
 274:Drivers/STM32L1xx_HAL_Driver/Src/stm32l1xx_hal_flash_ramfunc.c ****   return status;
 275:Drivers/STM32L1xx_HAL_Driver/Src/stm32l1xx_hal_flash_ramfunc.c **** }
 276:Drivers/STM32L1xx_HAL_Driver/Src/stm32l1xx_hal_flash_ramfunc.c **** #endif /* FLASH_PECR_PARALLBANK */
 277:Drivers/STM32L1xx_HAL_Driver/Src/stm32l1xx_hal_flash_ramfunc.c **** 
 278:Drivers/STM32L1xx_HAL_Driver/Src/stm32l1xx_hal_flash_ramfunc.c **** /**
 279:Drivers/STM32L1xx_HAL_Driver/Src/stm32l1xx_hal_flash_ramfunc.c ****   * @brief  Program a half page in program memory.
 280:Drivers/STM32L1xx_HAL_Driver/Src/stm32l1xx_hal_flash_ramfunc.c ****   * @param  Address specifies the address to be written.
 281:Drivers/STM32L1xx_HAL_Driver/Src/stm32l1xx_hal_flash_ramfunc.c ****   * @param  pBuffer pointer to the buffer  containing the data to be  written to 
 282:Drivers/STM32L1xx_HAL_Driver/Src/stm32l1xx_hal_flash_ramfunc.c ****   *         the half page.
 283:Drivers/STM32L1xx_HAL_Driver/Src/stm32l1xx_hal_flash_ramfunc.c ****   * @note   To correctly run this function, the @ref HAL_FLASH_Unlock() function
 284:Drivers/STM32L1xx_HAL_Driver/Src/stm32l1xx_hal_flash_ramfunc.c ****   *         must be called before.
 285:Drivers/STM32L1xx_HAL_Driver/Src/stm32l1xx_hal_flash_ramfunc.c ****   *         Call the @ref HAL_FLASH_Lock() to disable the flash memory access  
 286:Drivers/STM32L1xx_HAL_Driver/Src/stm32l1xx_hal_flash_ramfunc.c ****   *         (recommended to protect the FLASH memory against possible unwanted operation)
 287:Drivers/STM32L1xx_HAL_Driver/Src/stm32l1xx_hal_flash_ramfunc.c ****   * @note   Half page write is possible only from SRAM.
 288:Drivers/STM32L1xx_HAL_Driver/Src/stm32l1xx_hal_flash_ramfunc.c ****   * @note   If there are more than 32 words to write, after 32 words another 
 289:Drivers/STM32L1xx_HAL_Driver/Src/stm32l1xx_hal_flash_ramfunc.c ****   *         Half Page programming operation starts and has to be finished.
 290:Drivers/STM32L1xx_HAL_Driver/Src/stm32l1xx_hal_flash_ramfunc.c ****   * @note   A half page is written to the program memory only if the first 
 291:Drivers/STM32L1xx_HAL_Driver/Src/stm32l1xx_hal_flash_ramfunc.c ****   *         address to load is the start address of a half page (multiple of 128 
 292:Drivers/STM32L1xx_HAL_Driver/Src/stm32l1xx_hal_flash_ramfunc.c ****   *         bytes) and the 31 remaining words to load are in the same half page.
 293:Drivers/STM32L1xx_HAL_Driver/Src/stm32l1xx_hal_flash_ramfunc.c ****   * @note   During the Program memory half page write all read operations are 
 294:Drivers/STM32L1xx_HAL_Driver/Src/stm32l1xx_hal_flash_ramfunc.c ****   *         forbidden (this includes DMA read operations and debugger read 
 295:Drivers/STM32L1xx_HAL_Driver/Src/stm32l1xx_hal_flash_ramfunc.c ****   *         operations such as breakpoints, periodic updates, etc.).
 296:Drivers/STM32L1xx_HAL_Driver/Src/stm32l1xx_hal_flash_ramfunc.c ****   * @note   If a PGAERR is set during a Program memory half page write, the 
 297:Drivers/STM32L1xx_HAL_Driver/Src/stm32l1xx_hal_flash_ramfunc.c ****   *         complete write operation is aborted. Software should then reset the 
 298:Drivers/STM32L1xx_HAL_Driver/Src/stm32l1xx_hal_flash_ramfunc.c ****   *         FPRG and PROG/DATA bits and restart the write operation from the 
 299:Drivers/STM32L1xx_HAL_Driver/Src/stm32l1xx_hal_flash_ramfunc.c ****   *         beginning.
 300:Drivers/STM32L1xx_HAL_Driver/Src/stm32l1xx_hal_flash_ramfunc.c ****   * @retval HAL status
 301:Drivers/STM32L1xx_HAL_Driver/Src/stm32l1xx_hal_flash_ramfunc.c ****   */
 302:Drivers/STM32L1xx_HAL_Driver/Src/stm32l1xx_hal_flash_ramfunc.c **** __RAM_FUNC HAL_StatusTypeDef HAL_FLASHEx_HalfPageProgram(uint32_t Address, uint32_t* pBuffer)
 303:Drivers/STM32L1xx_HAL_Driver/Src/stm32l1xx_hal_flash_ramfunc.c **** {
 304:Drivers/STM32L1xx_HAL_Driver/Src/stm32l1xx_hal_flash_ramfunc.c ****   uint32_t primask_bit;
 305:Drivers/STM32L1xx_HAL_Driver/Src/stm32l1xx_hal_flash_ramfunc.c ****   uint32_t count = 0U; 
 306:Drivers/STM32L1xx_HAL_Driver/Src/stm32l1xx_hal_flash_ramfunc.c ****   HAL_StatusTypeDef status = HAL_OK;
 307:Drivers/STM32L1xx_HAL_Driver/Src/stm32l1xx_hal_flash_ramfunc.c **** 
 308:Drivers/STM32L1xx_HAL_Driver/Src/stm32l1xx_hal_flash_ramfunc.c ****   /* Wait for last operation to be completed */
 309:Drivers/STM32L1xx_HAL_Driver/Src/stm32l1xx_hal_flash_ramfunc.c ****   status = FLASHRAM_WaitForLastOperation(FLASH_TIMEOUT_VALUE);
 310:Drivers/STM32L1xx_HAL_Driver/Src/stm32l1xx_hal_flash_ramfunc.c ****   
 311:Drivers/STM32L1xx_HAL_Driver/Src/stm32l1xx_hal_flash_ramfunc.c ****   if(status == HAL_OK)
 312:Drivers/STM32L1xx_HAL_Driver/Src/stm32l1xx_hal_flash_ramfunc.c ****   {
 313:Drivers/STM32L1xx_HAL_Driver/Src/stm32l1xx_hal_flash_ramfunc.c ****     /* Disable all IRQs */
 314:Drivers/STM32L1xx_HAL_Driver/Src/stm32l1xx_hal_flash_ramfunc.c ****     primask_bit = __get_PRIMASK();
 315:Drivers/STM32L1xx_HAL_Driver/Src/stm32l1xx_hal_flash_ramfunc.c ****     __disable_irq();
 316:Drivers/STM32L1xx_HAL_Driver/Src/stm32l1xx_hal_flash_ramfunc.c **** 
 317:Drivers/STM32L1xx_HAL_Driver/Src/stm32l1xx_hal_flash_ramfunc.c ****     /* Proceed to program the new half page */
 318:Drivers/STM32L1xx_HAL_Driver/Src/stm32l1xx_hal_flash_ramfunc.c ****     SET_BIT(FLASH->PECR, FLASH_PECR_FPRG);
ARM GAS  /tmp/ccJ0rBCo.s 			page 7


 319:Drivers/STM32L1xx_HAL_Driver/Src/stm32l1xx_hal_flash_ramfunc.c ****     SET_BIT(FLASH->PECR, FLASH_PECR_PROG);
 320:Drivers/STM32L1xx_HAL_Driver/Src/stm32l1xx_hal_flash_ramfunc.c ****     
 321:Drivers/STM32L1xx_HAL_Driver/Src/stm32l1xx_hal_flash_ramfunc.c ****     /* Write one half page directly with 32 different words */
 322:Drivers/STM32L1xx_HAL_Driver/Src/stm32l1xx_hal_flash_ramfunc.c ****     while(count < 32U)
 323:Drivers/STM32L1xx_HAL_Driver/Src/stm32l1xx_hal_flash_ramfunc.c ****     {
 324:Drivers/STM32L1xx_HAL_Driver/Src/stm32l1xx_hal_flash_ramfunc.c ****       *(__IO uint32_t*) ((uint32_t)(Address + (4 * count))) = *pBuffer;
 325:Drivers/STM32L1xx_HAL_Driver/Src/stm32l1xx_hal_flash_ramfunc.c ****       pBuffer++;
 326:Drivers/STM32L1xx_HAL_Driver/Src/stm32l1xx_hal_flash_ramfunc.c ****       count ++;  
 327:Drivers/STM32L1xx_HAL_Driver/Src/stm32l1xx_hal_flash_ramfunc.c ****     }
 328:Drivers/STM32L1xx_HAL_Driver/Src/stm32l1xx_hal_flash_ramfunc.c **** 
 329:Drivers/STM32L1xx_HAL_Driver/Src/stm32l1xx_hal_flash_ramfunc.c ****     /* Wait for last operation to be completed */
 330:Drivers/STM32L1xx_HAL_Driver/Src/stm32l1xx_hal_flash_ramfunc.c ****     status = FLASHRAM_WaitForLastOperation(FLASH_TIMEOUT_VALUE);
 331:Drivers/STM32L1xx_HAL_Driver/Src/stm32l1xx_hal_flash_ramfunc.c ****  
 332:Drivers/STM32L1xx_HAL_Driver/Src/stm32l1xx_hal_flash_ramfunc.c ****     /* If the write operation is completed, disable the PROG and FPRG bits */
 333:Drivers/STM32L1xx_HAL_Driver/Src/stm32l1xx_hal_flash_ramfunc.c ****     CLEAR_BIT(FLASH->PECR, FLASH_PECR_PROG);
 334:Drivers/STM32L1xx_HAL_Driver/Src/stm32l1xx_hal_flash_ramfunc.c ****     CLEAR_BIT(FLASH->PECR, FLASH_PECR_FPRG);
 335:Drivers/STM32L1xx_HAL_Driver/Src/stm32l1xx_hal_flash_ramfunc.c **** 
 336:Drivers/STM32L1xx_HAL_Driver/Src/stm32l1xx_hal_flash_ramfunc.c ****     /* Enable IRQs */
 337:Drivers/STM32L1xx_HAL_Driver/Src/stm32l1xx_hal_flash_ramfunc.c ****     __set_PRIMASK(primask_bit);
 338:Drivers/STM32L1xx_HAL_Driver/Src/stm32l1xx_hal_flash_ramfunc.c ****   }
 339:Drivers/STM32L1xx_HAL_Driver/Src/stm32l1xx_hal_flash_ramfunc.c ****    
 340:Drivers/STM32L1xx_HAL_Driver/Src/stm32l1xx_hal_flash_ramfunc.c ****   /* Return the Write Status */
 341:Drivers/STM32L1xx_HAL_Driver/Src/stm32l1xx_hal_flash_ramfunc.c ****   return status;
 342:Drivers/STM32L1xx_HAL_Driver/Src/stm32l1xx_hal_flash_ramfunc.c **** }
 343:Drivers/STM32L1xx_HAL_Driver/Src/stm32l1xx_hal_flash_ramfunc.c **** 
 344:Drivers/STM32L1xx_HAL_Driver/Src/stm32l1xx_hal_flash_ramfunc.c **** /**
 345:Drivers/STM32L1xx_HAL_Driver/Src/stm32l1xx_hal_flash_ramfunc.c ****   * @}
 346:Drivers/STM32L1xx_HAL_Driver/Src/stm32l1xx_hal_flash_ramfunc.c ****   */
 347:Drivers/STM32L1xx_HAL_Driver/Src/stm32l1xx_hal_flash_ramfunc.c **** 
 348:Drivers/STM32L1xx_HAL_Driver/Src/stm32l1xx_hal_flash_ramfunc.c **** /** @defgroup FLASH_RAMFUNC_Exported_Functions_Group3 Peripheral errors functions 
 349:Drivers/STM32L1xx_HAL_Driver/Src/stm32l1xx_hal_flash_ramfunc.c ****  *  @brief    Peripheral errors functions 
 350:Drivers/STM32L1xx_HAL_Driver/Src/stm32l1xx_hal_flash_ramfunc.c ****  *
 351:Drivers/STM32L1xx_HAL_Driver/Src/stm32l1xx_hal_flash_ramfunc.c **** @verbatim   
 352:Drivers/STM32L1xx_HAL_Driver/Src/stm32l1xx_hal_flash_ramfunc.c ****  ===============================================================================
 353:Drivers/STM32L1xx_HAL_Driver/Src/stm32l1xx_hal_flash_ramfunc.c ****                       ##### Peripheral errors functions #####
 354:Drivers/STM32L1xx_HAL_Driver/Src/stm32l1xx_hal_flash_ramfunc.c ****  ===============================================================================  
 355:Drivers/STM32L1xx_HAL_Driver/Src/stm32l1xx_hal_flash_ramfunc.c ****     [..]
 356:Drivers/STM32L1xx_HAL_Driver/Src/stm32l1xx_hal_flash_ramfunc.c ****     This subsection permit to get in run-time errors of  the FLASH peripheral.
 357:Drivers/STM32L1xx_HAL_Driver/Src/stm32l1xx_hal_flash_ramfunc.c **** 
 358:Drivers/STM32L1xx_HAL_Driver/Src/stm32l1xx_hal_flash_ramfunc.c **** @endverbatim
 359:Drivers/STM32L1xx_HAL_Driver/Src/stm32l1xx_hal_flash_ramfunc.c ****   * @{
 360:Drivers/STM32L1xx_HAL_Driver/Src/stm32l1xx_hal_flash_ramfunc.c ****   */
 361:Drivers/STM32L1xx_HAL_Driver/Src/stm32l1xx_hal_flash_ramfunc.c **** 
 362:Drivers/STM32L1xx_HAL_Driver/Src/stm32l1xx_hal_flash_ramfunc.c **** /**
 363:Drivers/STM32L1xx_HAL_Driver/Src/stm32l1xx_hal_flash_ramfunc.c ****   * @brief  Get the specific FLASH errors flag.
 364:Drivers/STM32L1xx_HAL_Driver/Src/stm32l1xx_hal_flash_ramfunc.c ****   * @param  Error pointer is the error value. It can be a mixed of:
 365:Drivers/STM32L1xx_HAL_Driver/Src/stm32l1xx_hal_flash_ramfunc.c **** @if STM32L100xB
 366:Drivers/STM32L1xx_HAL_Driver/Src/stm32l1xx_hal_flash_ramfunc.c **** @elif STM32L100xBA
 367:Drivers/STM32L1xx_HAL_Driver/Src/stm32l1xx_hal_flash_ramfunc.c ****   *            @arg @ref HAL_FLASH_ERROR_RD      FLASH Read Protection error flag (PCROP)
 368:Drivers/STM32L1xx_HAL_Driver/Src/stm32l1xx_hal_flash_ramfunc.c **** @elif STM32L151xB
 369:Drivers/STM32L1xx_HAL_Driver/Src/stm32l1xx_hal_flash_ramfunc.c **** @elif STM32L151xBA
 370:Drivers/STM32L1xx_HAL_Driver/Src/stm32l1xx_hal_flash_ramfunc.c ****   *            @arg @ref HAL_FLASH_ERROR_RD      FLASH Read Protection error flag (PCROP)
 371:Drivers/STM32L1xx_HAL_Driver/Src/stm32l1xx_hal_flash_ramfunc.c **** @elif STM32L152xB
 372:Drivers/STM32L1xx_HAL_Driver/Src/stm32l1xx_hal_flash_ramfunc.c **** @elif STM32L152xBA
 373:Drivers/STM32L1xx_HAL_Driver/Src/stm32l1xx_hal_flash_ramfunc.c ****   *            @arg @ref HAL_FLASH_ERROR_RD      FLASH Read Protection error flag (PCROP)
 374:Drivers/STM32L1xx_HAL_Driver/Src/stm32l1xx_hal_flash_ramfunc.c **** @elif STM32L100xC
 375:Drivers/STM32L1xx_HAL_Driver/Src/stm32l1xx_hal_flash_ramfunc.c ****   *            @arg @ref HAL_FLASH_ERROR_RD      FLASH Read Protection error flag (PCROP)
ARM GAS  /tmp/ccJ0rBCo.s 			page 8


 376:Drivers/STM32L1xx_HAL_Driver/Src/stm32l1xx_hal_flash_ramfunc.c ****   *            @arg @ref HAL_FLASH_ERROR_OPTVUSR FLASH Option User validity error
 377:Drivers/STM32L1xx_HAL_Driver/Src/stm32l1xx_hal_flash_ramfunc.c **** @elif STM32L151xC
 378:Drivers/STM32L1xx_HAL_Driver/Src/stm32l1xx_hal_flash_ramfunc.c ****   *            @arg @ref HAL_FLASH_ERROR_RD      FLASH Read Protection error flag (PCROP)
 379:Drivers/STM32L1xx_HAL_Driver/Src/stm32l1xx_hal_flash_ramfunc.c ****   *            @arg @ref HAL_FLASH_ERROR_OPTVUSR FLASH Option User validity error
 380:Drivers/STM32L1xx_HAL_Driver/Src/stm32l1xx_hal_flash_ramfunc.c **** @elif STM32L152xC
 381:Drivers/STM32L1xx_HAL_Driver/Src/stm32l1xx_hal_flash_ramfunc.c ****   *            @arg @ref HAL_FLASH_ERROR_RD      FLASH Read Protection error flag (PCROP)
 382:Drivers/STM32L1xx_HAL_Driver/Src/stm32l1xx_hal_flash_ramfunc.c ****   *            @arg @ref HAL_FLASH_ERROR_OPTVUSR FLASH Option User validity error
 383:Drivers/STM32L1xx_HAL_Driver/Src/stm32l1xx_hal_flash_ramfunc.c **** @elif STM32L162xC
 384:Drivers/STM32L1xx_HAL_Driver/Src/stm32l1xx_hal_flash_ramfunc.c ****   *            @arg @ref HAL_FLASH_ERROR_RD      FLASH Read Protection error flag (PCROP)
 385:Drivers/STM32L1xx_HAL_Driver/Src/stm32l1xx_hal_flash_ramfunc.c ****   *            @arg @ref HAL_FLASH_ERROR_OPTVUSR FLASH Option User validity error
 386:Drivers/STM32L1xx_HAL_Driver/Src/stm32l1xx_hal_flash_ramfunc.c **** @else
 387:Drivers/STM32L1xx_HAL_Driver/Src/stm32l1xx_hal_flash_ramfunc.c ****   *            @arg @ref HAL_FLASH_ERROR_OPTVUSR FLASH Option User validity error
 388:Drivers/STM32L1xx_HAL_Driver/Src/stm32l1xx_hal_flash_ramfunc.c **** @endif
 389:Drivers/STM32L1xx_HAL_Driver/Src/stm32l1xx_hal_flash_ramfunc.c ****   *            @arg @ref HAL_FLASH_ERROR_PGA     FLASH Programming Alignment error flag
 390:Drivers/STM32L1xx_HAL_Driver/Src/stm32l1xx_hal_flash_ramfunc.c ****   *            @arg @ref HAL_FLASH_ERROR_WRP     FLASH Write protected error flag
 391:Drivers/STM32L1xx_HAL_Driver/Src/stm32l1xx_hal_flash_ramfunc.c ****   *            @arg @ref HAL_FLASH_ERROR_OPTV    FLASH Option valid error flag 
 392:Drivers/STM32L1xx_HAL_Driver/Src/stm32l1xx_hal_flash_ramfunc.c ****   * @retval HAL Status
 393:Drivers/STM32L1xx_HAL_Driver/Src/stm32l1xx_hal_flash_ramfunc.c ****   */
 394:Drivers/STM32L1xx_HAL_Driver/Src/stm32l1xx_hal_flash_ramfunc.c **** __RAM_FUNC HAL_StatusTypeDef HAL_FLASHEx_GetError(uint32_t * Error)
 395:Drivers/STM32L1xx_HAL_Driver/Src/stm32l1xx_hal_flash_ramfunc.c **** { 
 396:Drivers/STM32L1xx_HAL_Driver/Src/stm32l1xx_hal_flash_ramfunc.c ****   *Error = pFlash.ErrorCode;
 397:Drivers/STM32L1xx_HAL_Driver/Src/stm32l1xx_hal_flash_ramfunc.c ****   return HAL_OK;  
 398:Drivers/STM32L1xx_HAL_Driver/Src/stm32l1xx_hal_flash_ramfunc.c **** }
 399:Drivers/STM32L1xx_HAL_Driver/Src/stm32l1xx_hal_flash_ramfunc.c **** 
 400:Drivers/STM32L1xx_HAL_Driver/Src/stm32l1xx_hal_flash_ramfunc.c **** /**
 401:Drivers/STM32L1xx_HAL_Driver/Src/stm32l1xx_hal_flash_ramfunc.c ****   * @}
 402:Drivers/STM32L1xx_HAL_Driver/Src/stm32l1xx_hal_flash_ramfunc.c ****   */
 403:Drivers/STM32L1xx_HAL_Driver/Src/stm32l1xx_hal_flash_ramfunc.c **** 
 404:Drivers/STM32L1xx_HAL_Driver/Src/stm32l1xx_hal_flash_ramfunc.c **** /** @defgroup FLASH_RAMFUNC_Exported_Functions_Group4 DATA EEPROM functions
 405:Drivers/STM32L1xx_HAL_Driver/Src/stm32l1xx_hal_flash_ramfunc.c ****   *
 406:Drivers/STM32L1xx_HAL_Driver/Src/stm32l1xx_hal_flash_ramfunc.c ****   * @{
 407:Drivers/STM32L1xx_HAL_Driver/Src/stm32l1xx_hal_flash_ramfunc.c ****   */
 408:Drivers/STM32L1xx_HAL_Driver/Src/stm32l1xx_hal_flash_ramfunc.c **** 
 409:Drivers/STM32L1xx_HAL_Driver/Src/stm32l1xx_hal_flash_ramfunc.c **** /**
 410:Drivers/STM32L1xx_HAL_Driver/Src/stm32l1xx_hal_flash_ramfunc.c ****   * @brief  Erase a double word in data memory.
 411:Drivers/STM32L1xx_HAL_Driver/Src/stm32l1xx_hal_flash_ramfunc.c ****   * @param  Address specifies the address to be erased.
 412:Drivers/STM32L1xx_HAL_Driver/Src/stm32l1xx_hal_flash_ramfunc.c ****   * @note   To correctly run this function, the HAL_FLASH_EEPROM_Unlock() function
 413:Drivers/STM32L1xx_HAL_Driver/Src/stm32l1xx_hal_flash_ramfunc.c ****   *         must be called before.
 414:Drivers/STM32L1xx_HAL_Driver/Src/stm32l1xx_hal_flash_ramfunc.c ****   *         Call the HAL_FLASH_EEPROM_Lock() to he data EEPROM access
 415:Drivers/STM32L1xx_HAL_Driver/Src/stm32l1xx_hal_flash_ramfunc.c ****   *         and Flash program erase control register access(recommended to protect 
 416:Drivers/STM32L1xx_HAL_Driver/Src/stm32l1xx_hal_flash_ramfunc.c ****   *         the DATA_EEPROM against possible unwanted operation).
 417:Drivers/STM32L1xx_HAL_Driver/Src/stm32l1xx_hal_flash_ramfunc.c ****   * @note   Data memory double word erase is possible only from SRAM.
 418:Drivers/STM32L1xx_HAL_Driver/Src/stm32l1xx_hal_flash_ramfunc.c ****   * @note   A double word is erased to the data memory only if the first address 
 419:Drivers/STM32L1xx_HAL_Driver/Src/stm32l1xx_hal_flash_ramfunc.c ****   *         to load is the start address of a double word (multiple of 8 bytes).
 420:Drivers/STM32L1xx_HAL_Driver/Src/stm32l1xx_hal_flash_ramfunc.c ****   * @note   During the Data memory double word erase, all read operations are 
 421:Drivers/STM32L1xx_HAL_Driver/Src/stm32l1xx_hal_flash_ramfunc.c ****   *         forbidden (this includes DMA read operations and debugger read 
 422:Drivers/STM32L1xx_HAL_Driver/Src/stm32l1xx_hal_flash_ramfunc.c ****   *         operations such as breakpoints, periodic updates, etc.).
 423:Drivers/STM32L1xx_HAL_Driver/Src/stm32l1xx_hal_flash_ramfunc.c ****   * @retval HAL status
 424:Drivers/STM32L1xx_HAL_Driver/Src/stm32l1xx_hal_flash_ramfunc.c ****   */
 425:Drivers/STM32L1xx_HAL_Driver/Src/stm32l1xx_hal_flash_ramfunc.c **** 
 426:Drivers/STM32L1xx_HAL_Driver/Src/stm32l1xx_hal_flash_ramfunc.c **** __RAM_FUNC HAL_StatusTypeDef HAL_FLASHEx_DATAEEPROM_EraseDoubleWord(uint32_t Address)
 427:Drivers/STM32L1xx_HAL_Driver/Src/stm32l1xx_hal_flash_ramfunc.c **** {
 428:Drivers/STM32L1xx_HAL_Driver/Src/stm32l1xx_hal_flash_ramfunc.c ****   uint32_t primask_bit;
 429:Drivers/STM32L1xx_HAL_Driver/Src/stm32l1xx_hal_flash_ramfunc.c ****   HAL_StatusTypeDef status = HAL_OK;
 430:Drivers/STM32L1xx_HAL_Driver/Src/stm32l1xx_hal_flash_ramfunc.c ****   
 431:Drivers/STM32L1xx_HAL_Driver/Src/stm32l1xx_hal_flash_ramfunc.c ****   /* Wait for last operation to be completed */
 432:Drivers/STM32L1xx_HAL_Driver/Src/stm32l1xx_hal_flash_ramfunc.c ****   status = FLASHRAM_WaitForLastOperation(FLASH_TIMEOUT_VALUE);
ARM GAS  /tmp/ccJ0rBCo.s 			page 9


 433:Drivers/STM32L1xx_HAL_Driver/Src/stm32l1xx_hal_flash_ramfunc.c ****   
 434:Drivers/STM32L1xx_HAL_Driver/Src/stm32l1xx_hal_flash_ramfunc.c ****   if(status == HAL_OK)
 435:Drivers/STM32L1xx_HAL_Driver/Src/stm32l1xx_hal_flash_ramfunc.c ****   {
 436:Drivers/STM32L1xx_HAL_Driver/Src/stm32l1xx_hal_flash_ramfunc.c ****     /* Disable all IRQs */
 437:Drivers/STM32L1xx_HAL_Driver/Src/stm32l1xx_hal_flash_ramfunc.c ****     primask_bit = __get_PRIMASK();
 438:Drivers/STM32L1xx_HAL_Driver/Src/stm32l1xx_hal_flash_ramfunc.c ****     __disable_irq();
 439:Drivers/STM32L1xx_HAL_Driver/Src/stm32l1xx_hal_flash_ramfunc.c **** 
 440:Drivers/STM32L1xx_HAL_Driver/Src/stm32l1xx_hal_flash_ramfunc.c ****     /* If the previous operation is completed, proceed to erase the next double word */
 441:Drivers/STM32L1xx_HAL_Driver/Src/stm32l1xx_hal_flash_ramfunc.c ****     /* Set the ERASE bit */
 442:Drivers/STM32L1xx_HAL_Driver/Src/stm32l1xx_hal_flash_ramfunc.c ****     SET_BIT(FLASH->PECR, FLASH_PECR_ERASE);
 443:Drivers/STM32L1xx_HAL_Driver/Src/stm32l1xx_hal_flash_ramfunc.c **** 
 444:Drivers/STM32L1xx_HAL_Driver/Src/stm32l1xx_hal_flash_ramfunc.c ****     /* Set DATA bit */
 445:Drivers/STM32L1xx_HAL_Driver/Src/stm32l1xx_hal_flash_ramfunc.c ****     SET_BIT(FLASH->PECR, FLASH_PECR_DATA);
 446:Drivers/STM32L1xx_HAL_Driver/Src/stm32l1xx_hal_flash_ramfunc.c ****    
 447:Drivers/STM32L1xx_HAL_Driver/Src/stm32l1xx_hal_flash_ramfunc.c ****     /* Write 00000000h to the 2 words to erase */
 448:Drivers/STM32L1xx_HAL_Driver/Src/stm32l1xx_hal_flash_ramfunc.c ****     *(__IO uint32_t *)Address = 0x00000000U;
 449:Drivers/STM32L1xx_HAL_Driver/Src/stm32l1xx_hal_flash_ramfunc.c ****     Address += 4U;
 450:Drivers/STM32L1xx_HAL_Driver/Src/stm32l1xx_hal_flash_ramfunc.c ****     *(__IO uint32_t *)Address = 0x00000000U;
 451:Drivers/STM32L1xx_HAL_Driver/Src/stm32l1xx_hal_flash_ramfunc.c ****    
 452:Drivers/STM32L1xx_HAL_Driver/Src/stm32l1xx_hal_flash_ramfunc.c ****     /* Wait for last operation to be completed */
 453:Drivers/STM32L1xx_HAL_Driver/Src/stm32l1xx_hal_flash_ramfunc.c ****     status = FLASHRAM_WaitForLastOperation(FLASH_TIMEOUT_VALUE);
 454:Drivers/STM32L1xx_HAL_Driver/Src/stm32l1xx_hal_flash_ramfunc.c ****     
 455:Drivers/STM32L1xx_HAL_Driver/Src/stm32l1xx_hal_flash_ramfunc.c ****     /* If the erase operation is completed, disable the ERASE and DATA bits */
 456:Drivers/STM32L1xx_HAL_Driver/Src/stm32l1xx_hal_flash_ramfunc.c ****     CLEAR_BIT(FLASH->PECR, FLASH_PECR_ERASE);
 457:Drivers/STM32L1xx_HAL_Driver/Src/stm32l1xx_hal_flash_ramfunc.c ****     CLEAR_BIT(FLASH->PECR, FLASH_PECR_DATA);
 458:Drivers/STM32L1xx_HAL_Driver/Src/stm32l1xx_hal_flash_ramfunc.c **** 
 459:Drivers/STM32L1xx_HAL_Driver/Src/stm32l1xx_hal_flash_ramfunc.c ****     /* Enable IRQs */
 460:Drivers/STM32L1xx_HAL_Driver/Src/stm32l1xx_hal_flash_ramfunc.c ****     __set_PRIMASK(primask_bit);
 461:Drivers/STM32L1xx_HAL_Driver/Src/stm32l1xx_hal_flash_ramfunc.c ****  
 462:Drivers/STM32L1xx_HAL_Driver/Src/stm32l1xx_hal_flash_ramfunc.c ****   }  
 463:Drivers/STM32L1xx_HAL_Driver/Src/stm32l1xx_hal_flash_ramfunc.c ****       
 464:Drivers/STM32L1xx_HAL_Driver/Src/stm32l1xx_hal_flash_ramfunc.c ****   /* Return the erase status */
 465:Drivers/STM32L1xx_HAL_Driver/Src/stm32l1xx_hal_flash_ramfunc.c ****   return status;
 466:Drivers/STM32L1xx_HAL_Driver/Src/stm32l1xx_hal_flash_ramfunc.c **** }
 467:Drivers/STM32L1xx_HAL_Driver/Src/stm32l1xx_hal_flash_ramfunc.c **** 
 468:Drivers/STM32L1xx_HAL_Driver/Src/stm32l1xx_hal_flash_ramfunc.c **** /**
 469:Drivers/STM32L1xx_HAL_Driver/Src/stm32l1xx_hal_flash_ramfunc.c ****   * @brief  Write a double word in data memory without erase.
 470:Drivers/STM32L1xx_HAL_Driver/Src/stm32l1xx_hal_flash_ramfunc.c ****   * @param  Address specifies the address to be written.
 471:Drivers/STM32L1xx_HAL_Driver/Src/stm32l1xx_hal_flash_ramfunc.c ****   * @param  Data specifies the data to be written.
 472:Drivers/STM32L1xx_HAL_Driver/Src/stm32l1xx_hal_flash_ramfunc.c ****   * @note   To correctly run this function, the HAL_FLASH_EEPROM_Unlock() function
 473:Drivers/STM32L1xx_HAL_Driver/Src/stm32l1xx_hal_flash_ramfunc.c ****   *         must be called before.
 474:Drivers/STM32L1xx_HAL_Driver/Src/stm32l1xx_hal_flash_ramfunc.c ****   *         Call the HAL_FLASH_EEPROM_Lock() to he data EEPROM access
 475:Drivers/STM32L1xx_HAL_Driver/Src/stm32l1xx_hal_flash_ramfunc.c ****   *         and Flash program erase control register access(recommended to protect 
 476:Drivers/STM32L1xx_HAL_Driver/Src/stm32l1xx_hal_flash_ramfunc.c ****   *         the DATA_EEPROM against possible unwanted operation).
 477:Drivers/STM32L1xx_HAL_Driver/Src/stm32l1xx_hal_flash_ramfunc.c ****   * @note   Data memory double word write is possible only from SRAM.
 478:Drivers/STM32L1xx_HAL_Driver/Src/stm32l1xx_hal_flash_ramfunc.c ****   * @note   A data memory double word is written to the data memory only if the 
 479:Drivers/STM32L1xx_HAL_Driver/Src/stm32l1xx_hal_flash_ramfunc.c ****   *         first address to load is the start address of a double word (multiple 
 480:Drivers/STM32L1xx_HAL_Driver/Src/stm32l1xx_hal_flash_ramfunc.c ****   *         of double word).
 481:Drivers/STM32L1xx_HAL_Driver/Src/stm32l1xx_hal_flash_ramfunc.c ****   * @note   During the Data memory double word write, all read operations are 
 482:Drivers/STM32L1xx_HAL_Driver/Src/stm32l1xx_hal_flash_ramfunc.c ****   *         forbidden (this includes DMA read operations and debugger read 
 483:Drivers/STM32L1xx_HAL_Driver/Src/stm32l1xx_hal_flash_ramfunc.c ****   *         operations such as breakpoints, periodic updates, etc.).
 484:Drivers/STM32L1xx_HAL_Driver/Src/stm32l1xx_hal_flash_ramfunc.c ****   * @retval HAL status
 485:Drivers/STM32L1xx_HAL_Driver/Src/stm32l1xx_hal_flash_ramfunc.c ****   */ 
 486:Drivers/STM32L1xx_HAL_Driver/Src/stm32l1xx_hal_flash_ramfunc.c **** __RAM_FUNC HAL_StatusTypeDef HAL_FLASHEx_DATAEEPROM_ProgramDoubleWord(uint32_t Address, uint64_t Da
 487:Drivers/STM32L1xx_HAL_Driver/Src/stm32l1xx_hal_flash_ramfunc.c **** {
 488:Drivers/STM32L1xx_HAL_Driver/Src/stm32l1xx_hal_flash_ramfunc.c ****   uint32_t primask_bit;
 489:Drivers/STM32L1xx_HAL_Driver/Src/stm32l1xx_hal_flash_ramfunc.c ****   HAL_StatusTypeDef status = HAL_OK;
ARM GAS  /tmp/ccJ0rBCo.s 			page 10


 490:Drivers/STM32L1xx_HAL_Driver/Src/stm32l1xx_hal_flash_ramfunc.c **** 
 491:Drivers/STM32L1xx_HAL_Driver/Src/stm32l1xx_hal_flash_ramfunc.c ****   /* Wait for last operation to be completed */
 492:Drivers/STM32L1xx_HAL_Driver/Src/stm32l1xx_hal_flash_ramfunc.c ****   status = FLASHRAM_WaitForLastOperation(FLASH_TIMEOUT_VALUE);
 493:Drivers/STM32L1xx_HAL_Driver/Src/stm32l1xx_hal_flash_ramfunc.c ****   
 494:Drivers/STM32L1xx_HAL_Driver/Src/stm32l1xx_hal_flash_ramfunc.c ****   if(status == HAL_OK)
 495:Drivers/STM32L1xx_HAL_Driver/Src/stm32l1xx_hal_flash_ramfunc.c ****   {
 496:Drivers/STM32L1xx_HAL_Driver/Src/stm32l1xx_hal_flash_ramfunc.c ****     /* Disable all IRQs */
 497:Drivers/STM32L1xx_HAL_Driver/Src/stm32l1xx_hal_flash_ramfunc.c ****     primask_bit = __get_PRIMASK();
 498:Drivers/STM32L1xx_HAL_Driver/Src/stm32l1xx_hal_flash_ramfunc.c ****     __disable_irq();
 499:Drivers/STM32L1xx_HAL_Driver/Src/stm32l1xx_hal_flash_ramfunc.c **** 
 500:Drivers/STM32L1xx_HAL_Driver/Src/stm32l1xx_hal_flash_ramfunc.c ****     /* If the previous operation is completed, proceed to program the new data*/
 501:Drivers/STM32L1xx_HAL_Driver/Src/stm32l1xx_hal_flash_ramfunc.c ****     SET_BIT(FLASH->PECR, FLASH_PECR_FPRG);
 502:Drivers/STM32L1xx_HAL_Driver/Src/stm32l1xx_hal_flash_ramfunc.c ****     SET_BIT(FLASH->PECR, FLASH_PECR_DATA);
 503:Drivers/STM32L1xx_HAL_Driver/Src/stm32l1xx_hal_flash_ramfunc.c ****     
 504:Drivers/STM32L1xx_HAL_Driver/Src/stm32l1xx_hal_flash_ramfunc.c ****     /* Write the 2 words */  
 505:Drivers/STM32L1xx_HAL_Driver/Src/stm32l1xx_hal_flash_ramfunc.c ****      *(__IO uint32_t *)Address = (uint32_t) Data;
 506:Drivers/STM32L1xx_HAL_Driver/Src/stm32l1xx_hal_flash_ramfunc.c ****      Address += 4U;
 507:Drivers/STM32L1xx_HAL_Driver/Src/stm32l1xx_hal_flash_ramfunc.c ****      *(__IO uint32_t *)Address = (uint32_t) (Data >> 32);
 508:Drivers/STM32L1xx_HAL_Driver/Src/stm32l1xx_hal_flash_ramfunc.c ****      
 509:Drivers/STM32L1xx_HAL_Driver/Src/stm32l1xx_hal_flash_ramfunc.c ****     /* Wait for last operation to be completed */
 510:Drivers/STM32L1xx_HAL_Driver/Src/stm32l1xx_hal_flash_ramfunc.c ****     status = FLASHRAM_WaitForLastOperation(FLASH_TIMEOUT_VALUE);
 511:Drivers/STM32L1xx_HAL_Driver/Src/stm32l1xx_hal_flash_ramfunc.c ****     
 512:Drivers/STM32L1xx_HAL_Driver/Src/stm32l1xx_hal_flash_ramfunc.c ****     /* If the write operation is completed, disable the FPRG and DATA bits */
 513:Drivers/STM32L1xx_HAL_Driver/Src/stm32l1xx_hal_flash_ramfunc.c ****     CLEAR_BIT(FLASH->PECR, FLASH_PECR_FPRG);
 514:Drivers/STM32L1xx_HAL_Driver/Src/stm32l1xx_hal_flash_ramfunc.c ****     CLEAR_BIT(FLASH->PECR, FLASH_PECR_DATA);     
 515:Drivers/STM32L1xx_HAL_Driver/Src/stm32l1xx_hal_flash_ramfunc.c **** 
 516:Drivers/STM32L1xx_HAL_Driver/Src/stm32l1xx_hal_flash_ramfunc.c ****     /* Enable IRQs */
 517:Drivers/STM32L1xx_HAL_Driver/Src/stm32l1xx_hal_flash_ramfunc.c ****     __set_PRIMASK(primask_bit);
 518:Drivers/STM32L1xx_HAL_Driver/Src/stm32l1xx_hal_flash_ramfunc.c ****   }
 519:Drivers/STM32L1xx_HAL_Driver/Src/stm32l1xx_hal_flash_ramfunc.c ****       
 520:Drivers/STM32L1xx_HAL_Driver/Src/stm32l1xx_hal_flash_ramfunc.c ****   /* Return the Write Status */
 521:Drivers/STM32L1xx_HAL_Driver/Src/stm32l1xx_hal_flash_ramfunc.c ****   return status;
 522:Drivers/STM32L1xx_HAL_Driver/Src/stm32l1xx_hal_flash_ramfunc.c **** }
 523:Drivers/STM32L1xx_HAL_Driver/Src/stm32l1xx_hal_flash_ramfunc.c **** 
 524:Drivers/STM32L1xx_HAL_Driver/Src/stm32l1xx_hal_flash_ramfunc.c **** /**
 525:Drivers/STM32L1xx_HAL_Driver/Src/stm32l1xx_hal_flash_ramfunc.c ****   * @}
 526:Drivers/STM32L1xx_HAL_Driver/Src/stm32l1xx_hal_flash_ramfunc.c ****   */
 527:Drivers/STM32L1xx_HAL_Driver/Src/stm32l1xx_hal_flash_ramfunc.c **** 
 528:Drivers/STM32L1xx_HAL_Driver/Src/stm32l1xx_hal_flash_ramfunc.c **** /**
 529:Drivers/STM32L1xx_HAL_Driver/Src/stm32l1xx_hal_flash_ramfunc.c ****   * @}
 530:Drivers/STM32L1xx_HAL_Driver/Src/stm32l1xx_hal_flash_ramfunc.c ****   */
 531:Drivers/STM32L1xx_HAL_Driver/Src/stm32l1xx_hal_flash_ramfunc.c **** 
 532:Drivers/STM32L1xx_HAL_Driver/Src/stm32l1xx_hal_flash_ramfunc.c **** /** @addtogroup FLASH_RAMFUNC_Private_Functions
 533:Drivers/STM32L1xx_HAL_Driver/Src/stm32l1xx_hal_flash_ramfunc.c ****   * @{
 534:Drivers/STM32L1xx_HAL_Driver/Src/stm32l1xx_hal_flash_ramfunc.c ****   */ 
 535:Drivers/STM32L1xx_HAL_Driver/Src/stm32l1xx_hal_flash_ramfunc.c **** 
 536:Drivers/STM32L1xx_HAL_Driver/Src/stm32l1xx_hal_flash_ramfunc.c **** /**
 537:Drivers/STM32L1xx_HAL_Driver/Src/stm32l1xx_hal_flash_ramfunc.c ****   * @brief  Set the specific FLASH error flag.
 538:Drivers/STM32L1xx_HAL_Driver/Src/stm32l1xx_hal_flash_ramfunc.c ****   * @retval HAL Status
 539:Drivers/STM32L1xx_HAL_Driver/Src/stm32l1xx_hal_flash_ramfunc.c ****   */
 540:Drivers/STM32L1xx_HAL_Driver/Src/stm32l1xx_hal_flash_ramfunc.c **** static __RAM_FUNC HAL_StatusTypeDef FLASHRAM_SetErrorCode(void)
 541:Drivers/STM32L1xx_HAL_Driver/Src/stm32l1xx_hal_flash_ramfunc.c **** {
  26              		.loc 1 541 1 view -0
  27              		.cfi_startproc
  28              		@ args = 0, pretend = 0, frame = 0
  29              		@ frame_needed = 0, uses_anonymous_args = 0
  30              		@ link register save eliminated.
ARM GAS  /tmp/ccJ0rBCo.s 			page 11


 542:Drivers/STM32L1xx_HAL_Driver/Src/stm32l1xx_hal_flash_ramfunc.c ****   uint32_t flags = 0U;
  31              		.loc 1 542 3 view .LVU1
  32              	.LVL0:
 543:Drivers/STM32L1xx_HAL_Driver/Src/stm32l1xx_hal_flash_ramfunc.c ****   
 544:Drivers/STM32L1xx_HAL_Driver/Src/stm32l1xx_hal_flash_ramfunc.c ****   if(__HAL_FLASH_GET_FLAG(FLASH_FLAG_WRPERR))
  33              		.loc 1 544 3 view .LVU2
  34              		.loc 1 544 6 is_stmt 0 view .LVU3
  35 0000 194B     		ldr	r3, .L6
  36 0002 9B69     		ldr	r3, [r3, #24]
  37              		.loc 1 544 5 view .LVU4
  38 0004 13F48073 		ands	r3, r3, #256
  39 0008 06D0     		beq	.L2
 545:Drivers/STM32L1xx_HAL_Driver/Src/stm32l1xx_hal_flash_ramfunc.c ****   {
 546:Drivers/STM32L1xx_HAL_Driver/Src/stm32l1xx_hal_flash_ramfunc.c ****     pFlash.ErrorCode |= HAL_FLASH_ERROR_WRP;
  40              		.loc 1 546 5 is_stmt 1 view .LVU5
  41              		.loc 1 546 22 is_stmt 0 view .LVU6
  42 000a 184A     		ldr	r2, .L6+4
  43 000c 5369     		ldr	r3, [r2, #20]
  44 000e 43F00203 		orr	r3, r3, #2
  45 0012 5361     		str	r3, [r2, #20]
 547:Drivers/STM32L1xx_HAL_Driver/Src/stm32l1xx_hal_flash_ramfunc.c ****     flags |= FLASH_FLAG_WRPERR;
  46              		.loc 1 547 5 is_stmt 1 view .LVU7
  47              	.LVL1:
  48              		.loc 1 547 11 is_stmt 0 view .LVU8
  49 0014 4FF48073 		mov	r3, #256
  50              	.LVL2:
  51              	.L2:
 548:Drivers/STM32L1xx_HAL_Driver/Src/stm32l1xx_hal_flash_ramfunc.c ****   }
 549:Drivers/STM32L1xx_HAL_Driver/Src/stm32l1xx_hal_flash_ramfunc.c ****   if(__HAL_FLASH_GET_FLAG(FLASH_FLAG_PGAERR))
  52              		.loc 1 549 3 is_stmt 1 view .LVU9
  53              		.loc 1 549 6 is_stmt 0 view .LVU10
  54 0018 134A     		ldr	r2, .L6
  55 001a 9269     		ldr	r2, [r2, #24]
  56              		.loc 1 549 5 view .LVU11
  57 001c 12F4007F 		tst	r2, #512
  58 0020 06D0     		beq	.L3
 550:Drivers/STM32L1xx_HAL_Driver/Src/stm32l1xx_hal_flash_ramfunc.c ****   {
 551:Drivers/STM32L1xx_HAL_Driver/Src/stm32l1xx_hal_flash_ramfunc.c ****     pFlash.ErrorCode |= HAL_FLASH_ERROR_PGA;
  59              		.loc 1 551 5 is_stmt 1 view .LVU12
  60              		.loc 1 551 22 is_stmt 0 view .LVU13
  61 0022 1249     		ldr	r1, .L6+4
  62 0024 4A69     		ldr	r2, [r1, #20]
  63 0026 42F00102 		orr	r2, r2, #1
  64 002a 4A61     		str	r2, [r1, #20]
 552:Drivers/STM32L1xx_HAL_Driver/Src/stm32l1xx_hal_flash_ramfunc.c ****     flags |= FLASH_FLAG_PGAERR;
  65              		.loc 1 552 5 is_stmt 1 view .LVU14
  66              		.loc 1 552 11 is_stmt 0 view .LVU15
  67 002c 43F40073 		orr	r3, r3, #512
  68              	.LVL3:
  69              	.L3:
 553:Drivers/STM32L1xx_HAL_Driver/Src/stm32l1xx_hal_flash_ramfunc.c ****   }
 554:Drivers/STM32L1xx_HAL_Driver/Src/stm32l1xx_hal_flash_ramfunc.c ****   if(__HAL_FLASH_GET_FLAG(FLASH_FLAG_OPTVERR))
  70              		.loc 1 554 3 is_stmt 1 view .LVU16
  71              		.loc 1 554 6 is_stmt 0 view .LVU17
  72 0030 0D4A     		ldr	r2, .L6
  73 0032 9269     		ldr	r2, [r2, #24]
  74              		.loc 1 554 5 view .LVU18
ARM GAS  /tmp/ccJ0rBCo.s 			page 12


  75 0034 12F4006F 		tst	r2, #2048
  76 0038 06D0     		beq	.L4
 555:Drivers/STM32L1xx_HAL_Driver/Src/stm32l1xx_hal_flash_ramfunc.c ****   {
 556:Drivers/STM32L1xx_HAL_Driver/Src/stm32l1xx_hal_flash_ramfunc.c ****     pFlash.ErrorCode |= HAL_FLASH_ERROR_OPTV;
  77              		.loc 1 556 5 is_stmt 1 view .LVU19
  78              		.loc 1 556 22 is_stmt 0 view .LVU20
  79 003a 0C49     		ldr	r1, .L6+4
  80 003c 4A69     		ldr	r2, [r1, #20]
  81 003e 42F00402 		orr	r2, r2, #4
  82 0042 4A61     		str	r2, [r1, #20]
 557:Drivers/STM32L1xx_HAL_Driver/Src/stm32l1xx_hal_flash_ramfunc.c ****     flags |= FLASH_FLAG_OPTVERR;
  83              		.loc 1 557 5 is_stmt 1 view .LVU21
  84              		.loc 1 557 11 is_stmt 0 view .LVU22
  85 0044 43F40063 		orr	r3, r3, #2048
  86              	.LVL4:
  87              	.L4:
 558:Drivers/STM32L1xx_HAL_Driver/Src/stm32l1xx_hal_flash_ramfunc.c ****   }
 559:Drivers/STM32L1xx_HAL_Driver/Src/stm32l1xx_hal_flash_ramfunc.c **** 
 560:Drivers/STM32L1xx_HAL_Driver/Src/stm32l1xx_hal_flash_ramfunc.c **** #if defined(FLASH_SR_RDERR)
 561:Drivers/STM32L1xx_HAL_Driver/Src/stm32l1xx_hal_flash_ramfunc.c ****   if(__HAL_FLASH_GET_FLAG(FLASH_FLAG_RDERR))
 562:Drivers/STM32L1xx_HAL_Driver/Src/stm32l1xx_hal_flash_ramfunc.c ****   {
 563:Drivers/STM32L1xx_HAL_Driver/Src/stm32l1xx_hal_flash_ramfunc.c ****     pFlash.ErrorCode |= HAL_FLASH_ERROR_RD;
 564:Drivers/STM32L1xx_HAL_Driver/Src/stm32l1xx_hal_flash_ramfunc.c ****     flags |= FLASH_FLAG_RDERR;
 565:Drivers/STM32L1xx_HAL_Driver/Src/stm32l1xx_hal_flash_ramfunc.c ****   }
 566:Drivers/STM32L1xx_HAL_Driver/Src/stm32l1xx_hal_flash_ramfunc.c **** #endif /* FLASH_SR_RDERR */
 567:Drivers/STM32L1xx_HAL_Driver/Src/stm32l1xx_hal_flash_ramfunc.c **** #if defined(FLASH_SR_OPTVERRUSR)
 568:Drivers/STM32L1xx_HAL_Driver/Src/stm32l1xx_hal_flash_ramfunc.c ****   if(__HAL_FLASH_GET_FLAG(FLASH_FLAG_OPTVERRUSR))
  88              		.loc 1 568 3 is_stmt 1 view .LVU23
  89              		.loc 1 568 6 is_stmt 0 view .LVU24
  90 0048 074A     		ldr	r2, .L6
  91 004a 9269     		ldr	r2, [r2, #24]
  92              		.loc 1 568 5 view .LVU25
  93 004c 12F4805F 		tst	r2, #4096
  94 0050 06D0     		beq	.L5
 569:Drivers/STM32L1xx_HAL_Driver/Src/stm32l1xx_hal_flash_ramfunc.c ****   {
 570:Drivers/STM32L1xx_HAL_Driver/Src/stm32l1xx_hal_flash_ramfunc.c ****     pFlash.ErrorCode |= HAL_FLASH_ERROR_OPTVUSR;
  95              		.loc 1 570 5 is_stmt 1 view .LVU26
  96              		.loc 1 570 22 is_stmt 0 view .LVU27
  97 0052 0649     		ldr	r1, .L6+4
  98 0054 4A69     		ldr	r2, [r1, #20]
  99 0056 42F02002 		orr	r2, r2, #32
 100 005a 4A61     		str	r2, [r1, #20]
 571:Drivers/STM32L1xx_HAL_Driver/Src/stm32l1xx_hal_flash_ramfunc.c ****     flags |= FLASH_FLAG_OPTVERRUSR;
 101              		.loc 1 571 5 is_stmt 1 view .LVU28
 102              		.loc 1 571 11 is_stmt 0 view .LVU29
 103 005c 43F48053 		orr	r3, r3, #4096
 104              	.LVL5:
 105              	.L5:
 572:Drivers/STM32L1xx_HAL_Driver/Src/stm32l1xx_hal_flash_ramfunc.c ****   }
 573:Drivers/STM32L1xx_HAL_Driver/Src/stm32l1xx_hal_flash_ramfunc.c **** #endif /* FLASH_SR_OPTVERRUSR */
 574:Drivers/STM32L1xx_HAL_Driver/Src/stm32l1xx_hal_flash_ramfunc.c **** 
 575:Drivers/STM32L1xx_HAL_Driver/Src/stm32l1xx_hal_flash_ramfunc.c ****   /* Clear FLASH error pending bits */
 576:Drivers/STM32L1xx_HAL_Driver/Src/stm32l1xx_hal_flash_ramfunc.c ****   __HAL_FLASH_CLEAR_FLAG(flags);
 106              		.loc 1 576 3 is_stmt 1 view .LVU30
 107 0060 014A     		ldr	r2, .L6
 108 0062 9361     		str	r3, [r2, #24]
 577:Drivers/STM32L1xx_HAL_Driver/Src/stm32l1xx_hal_flash_ramfunc.c **** 
ARM GAS  /tmp/ccJ0rBCo.s 			page 13


 578:Drivers/STM32L1xx_HAL_Driver/Src/stm32l1xx_hal_flash_ramfunc.c ****   return HAL_OK;
 109              		.loc 1 578 3 view .LVU31
 579:Drivers/STM32L1xx_HAL_Driver/Src/stm32l1xx_hal_flash_ramfunc.c **** }  
 110              		.loc 1 579 1 is_stmt 0 view .LVU32
 111 0064 0020     		movs	r0, #0
 112 0066 7047     		bx	lr
 113              	.L7:
 114              		.align	2
 115              	.L6:
 116 0068 003C0240 		.word	1073888256
 117 006c 00000000 		.word	pFlash
 118              		.cfi_endproc
 119              	.LFE80:
 121              		.align	1
 122              		.syntax unified
 123              		.thumb
 124              		.thumb_func
 125              		.fpu softvfp
 127              	FLASHRAM_WaitForLastOperation:
 128              	.LVL6:
 129              	.LFB81:
 580:Drivers/STM32L1xx_HAL_Driver/Src/stm32l1xx_hal_flash_ramfunc.c **** 
 581:Drivers/STM32L1xx_HAL_Driver/Src/stm32l1xx_hal_flash_ramfunc.c **** /**
 582:Drivers/STM32L1xx_HAL_Driver/Src/stm32l1xx_hal_flash_ramfunc.c ****   * @brief  Wait for a FLASH operation to complete.
 583:Drivers/STM32L1xx_HAL_Driver/Src/stm32l1xx_hal_flash_ramfunc.c ****   * @param  Timeout maximum flash operationtimeout
 584:Drivers/STM32L1xx_HAL_Driver/Src/stm32l1xx_hal_flash_ramfunc.c ****   * @retval HAL status
 585:Drivers/STM32L1xx_HAL_Driver/Src/stm32l1xx_hal_flash_ramfunc.c ****   */
 586:Drivers/STM32L1xx_HAL_Driver/Src/stm32l1xx_hal_flash_ramfunc.c **** static __RAM_FUNC HAL_StatusTypeDef FLASHRAM_WaitForLastOperation(uint32_t Timeout)
 587:Drivers/STM32L1xx_HAL_Driver/Src/stm32l1xx_hal_flash_ramfunc.c **** { 
 130              		.loc 1 587 1 is_stmt 1 view -0
 131              		.cfi_startproc
 132              		@ args = 0, pretend = 0, frame = 0
 133              		@ frame_needed = 0, uses_anonymous_args = 0
 134              		.loc 1 587 1 is_stmt 0 view .LVU34
 135 0070 08B5     		push	{r3, lr}
 136              	.LCFI0:
 137              		.cfi_def_cfa_offset 8
 138              		.cfi_offset 3, -8
 139              		.cfi_offset 14, -4
 588:Drivers/STM32L1xx_HAL_Driver/Src/stm32l1xx_hal_flash_ramfunc.c ****     /* Wait for the FLASH operation to complete by polling on BUSY flag to be reset.
 589:Drivers/STM32L1xx_HAL_Driver/Src/stm32l1xx_hal_flash_ramfunc.c ****        Even if the FLASH operation fails, the BUSY flag will be reset and an error
 590:Drivers/STM32L1xx_HAL_Driver/Src/stm32l1xx_hal_flash_ramfunc.c ****        flag will be set */
 591:Drivers/STM32L1xx_HAL_Driver/Src/stm32l1xx_hal_flash_ramfunc.c ****        
 592:Drivers/STM32L1xx_HAL_Driver/Src/stm32l1xx_hal_flash_ramfunc.c ****     while(__HAL_FLASH_GET_FLAG(FLASH_FLAG_BSY) && (Timeout != 0x00U)) 
 140              		.loc 1 592 5 is_stmt 1 view .LVU35
 141              	.L9:
 142              		.loc 1 592 10 view .LVU36
 143              		.loc 1 592 11 is_stmt 0 view .LVU37
 144 0072 164B     		ldr	r3, .L18
 145 0074 9B69     		ldr	r3, [r3, #24]
 146              		.loc 1 592 10 view .LVU38
 147 0076 13F0010F 		tst	r3, #1
 148 007a 02D0     		beq	.L10
 149              		.loc 1 592 48 discriminator 1 view .LVU39
 150 007c 08B1     		cbz	r0, .L10
 593:Drivers/STM32L1xx_HAL_Driver/Src/stm32l1xx_hal_flash_ramfunc.c ****     { 
 594:Drivers/STM32L1xx_HAL_Driver/Src/stm32l1xx_hal_flash_ramfunc.c ****       Timeout--;
ARM GAS  /tmp/ccJ0rBCo.s 			page 14


 151              		.loc 1 594 7 is_stmt 1 view .LVU40
 152              		.loc 1 594 14 is_stmt 0 view .LVU41
 153 007e 0138     		subs	r0, r0, #1
 154              	.LVL7:
 155              		.loc 1 594 14 view .LVU42
 156 0080 F7E7     		b	.L9
 157              	.L10:
 595:Drivers/STM32L1xx_HAL_Driver/Src/stm32l1xx_hal_flash_ramfunc.c ****     }
 596:Drivers/STM32L1xx_HAL_Driver/Src/stm32l1xx_hal_flash_ramfunc.c ****     
 597:Drivers/STM32L1xx_HAL_Driver/Src/stm32l1xx_hal_flash_ramfunc.c ****     if(Timeout == 0x00U)
 158              		.loc 1 597 5 is_stmt 1 view .LVU43
 159              		.loc 1 597 7 is_stmt 0 view .LVU44
 160 0082 08B3     		cbz	r0, .L15
 598:Drivers/STM32L1xx_HAL_Driver/Src/stm32l1xx_hal_flash_ramfunc.c ****     {
 599:Drivers/STM32L1xx_HAL_Driver/Src/stm32l1xx_hal_flash_ramfunc.c ****       return HAL_TIMEOUT;
 600:Drivers/STM32L1xx_HAL_Driver/Src/stm32l1xx_hal_flash_ramfunc.c ****     }
 601:Drivers/STM32L1xx_HAL_Driver/Src/stm32l1xx_hal_flash_ramfunc.c ****     
 602:Drivers/STM32L1xx_HAL_Driver/Src/stm32l1xx_hal_flash_ramfunc.c ****   /* Check FLASH End of Operation flag  */
 603:Drivers/STM32L1xx_HAL_Driver/Src/stm32l1xx_hal_flash_ramfunc.c ****   if (__HAL_FLASH_GET_FLAG(FLASH_FLAG_EOP))
 161              		.loc 1 603 3 is_stmt 1 view .LVU45
 162              		.loc 1 603 7 is_stmt 0 view .LVU46
 163 0084 114B     		ldr	r3, .L18
 164 0086 9B69     		ldr	r3, [r3, #24]
 165              		.loc 1 603 6 view .LVU47
 166 0088 13F0020F 		tst	r3, #2
 167 008c 02D0     		beq	.L13
 604:Drivers/STM32L1xx_HAL_Driver/Src/stm32l1xx_hal_flash_ramfunc.c ****   {
 605:Drivers/STM32L1xx_HAL_Driver/Src/stm32l1xx_hal_flash_ramfunc.c ****     /* Clear FLASH End of Operation pending bit */
 606:Drivers/STM32L1xx_HAL_Driver/Src/stm32l1xx_hal_flash_ramfunc.c ****     __HAL_FLASH_CLEAR_FLAG(FLASH_FLAG_EOP);
 168              		.loc 1 606 5 is_stmt 1 view .LVU48
 169 008e 0F4B     		ldr	r3, .L18
 170 0090 0222     		movs	r2, #2
 171 0092 9A61     		str	r2, [r3, #24]
 172              	.L13:
 607:Drivers/STM32L1xx_HAL_Driver/Src/stm32l1xx_hal_flash_ramfunc.c ****   }
 608:Drivers/STM32L1xx_HAL_Driver/Src/stm32l1xx_hal_flash_ramfunc.c ****   
 609:Drivers/STM32L1xx_HAL_Driver/Src/stm32l1xx_hal_flash_ramfunc.c ****   if(__HAL_FLASH_GET_FLAG(FLASH_FLAG_WRPERR)  || 
 173              		.loc 1 609 3 view .LVU49
 174              		.loc 1 609 6 is_stmt 0 view .LVU50
 175 0094 0D4B     		ldr	r3, .L18
 176 0096 9B69     		ldr	r3, [r3, #24]
 177              		.loc 1 609 5 view .LVU51
 178 0098 13F4807F 		tst	r3, #256
 179 009c 10D1     		bne	.L14
 610:Drivers/STM32L1xx_HAL_Driver/Src/stm32l1xx_hal_flash_ramfunc.c ****      __HAL_FLASH_GET_FLAG(FLASH_FLAG_OPTVERR) || 
 180              		.loc 1 610 6 discriminator 1 view .LVU52
 181 009e 0B4B     		ldr	r3, .L18
 182 00a0 9B69     		ldr	r3, [r3, #24]
 609:Drivers/STM32L1xx_HAL_Driver/Src/stm32l1xx_hal_flash_ramfunc.c ****      __HAL_FLASH_GET_FLAG(FLASH_FLAG_OPTVERR) || 
 183              		.loc 1 609 47 discriminator 1 view .LVU53
 184 00a2 13F4006F 		tst	r3, #2048
 185 00a6 0BD1     		bne	.L14
 611:Drivers/STM32L1xx_HAL_Driver/Src/stm32l1xx_hal_flash_ramfunc.c **** #if defined(FLASH_SR_RDERR)
 612:Drivers/STM32L1xx_HAL_Driver/Src/stm32l1xx_hal_flash_ramfunc.c ****       __HAL_FLASH_GET_FLAG(FLASH_FLAG_RDERR) || 
 613:Drivers/STM32L1xx_HAL_Driver/Src/stm32l1xx_hal_flash_ramfunc.c **** #endif /* FLASH_SR_RDERR */
 614:Drivers/STM32L1xx_HAL_Driver/Src/stm32l1xx_hal_flash_ramfunc.c **** #if defined(FLASH_SR_OPTVERRUSR)
 615:Drivers/STM32L1xx_HAL_Driver/Src/stm32l1xx_hal_flash_ramfunc.c ****       __HAL_FLASH_GET_FLAG(FLASH_FLAG_OPTVERRUSR) || 
ARM GAS  /tmp/ccJ0rBCo.s 			page 15


 186              		.loc 1 615 7 view .LVU54
 187 00a8 084B     		ldr	r3, .L18
 188 00aa 9B69     		ldr	r3, [r3, #24]
 610:Drivers/STM32L1xx_HAL_Driver/Src/stm32l1xx_hal_flash_ramfunc.c **** #if defined(FLASH_SR_RDERR)
 189              		.loc 1 610 47 view .LVU55
 190 00ac 13F4805F 		tst	r3, #4096
 191 00b0 06D1     		bne	.L14
 616:Drivers/STM32L1xx_HAL_Driver/Src/stm32l1xx_hal_flash_ramfunc.c **** #endif /* FLASH_SR_OPTVERRUSR */
 617:Drivers/STM32L1xx_HAL_Driver/Src/stm32l1xx_hal_flash_ramfunc.c ****      __HAL_FLASH_GET_FLAG(FLASH_FLAG_PGAERR))
 192              		.loc 1 617 6 view .LVU56
 193 00b2 064B     		ldr	r3, .L18
 194 00b4 9B69     		ldr	r3, [r3, #24]
 615:Drivers/STM32L1xx_HAL_Driver/Src/stm32l1xx_hal_flash_ramfunc.c **** #endif /* FLASH_SR_OPTVERRUSR */
 195              		.loc 1 615 51 view .LVU57
 196 00b6 13F4007F 		tst	r3, #512
 197 00ba 01D1     		bne	.L14
 618:Drivers/STM32L1xx_HAL_Driver/Src/stm32l1xx_hal_flash_ramfunc.c ****   {
 619:Drivers/STM32L1xx_HAL_Driver/Src/stm32l1xx_hal_flash_ramfunc.c ****     /*Save the error code*/
 620:Drivers/STM32L1xx_HAL_Driver/Src/stm32l1xx_hal_flash_ramfunc.c ****     FLASHRAM_SetErrorCode();
 621:Drivers/STM32L1xx_HAL_Driver/Src/stm32l1xx_hal_flash_ramfunc.c ****     return HAL_ERROR;
 622:Drivers/STM32L1xx_HAL_Driver/Src/stm32l1xx_hal_flash_ramfunc.c ****   }
 623:Drivers/STM32L1xx_HAL_Driver/Src/stm32l1xx_hal_flash_ramfunc.c **** 
 624:Drivers/STM32L1xx_HAL_Driver/Src/stm32l1xx_hal_flash_ramfunc.c ****   /* There is no error flag set */
 625:Drivers/STM32L1xx_HAL_Driver/Src/stm32l1xx_hal_flash_ramfunc.c ****   return HAL_OK;
 198              		.loc 1 625 10 view .LVU58
 199 00bc 0020     		movs	r0, #0
 200              	.LVL8:
 201              		.loc 1 625 10 view .LVU59
 202 00be 02E0     		b	.L12
 203              	.LVL9:
 204              	.L14:
 620:Drivers/STM32L1xx_HAL_Driver/Src/stm32l1xx_hal_flash_ramfunc.c ****     return HAL_ERROR;
 205              		.loc 1 620 5 is_stmt 1 view .LVU60
 206 00c0 FFF79EFF 		bl	FLASHRAM_SetErrorCode
 207              	.LVL10:
 621:Drivers/STM32L1xx_HAL_Driver/Src/stm32l1xx_hal_flash_ramfunc.c ****   }
 208              		.loc 1 621 5 view .LVU61
 621:Drivers/STM32L1xx_HAL_Driver/Src/stm32l1xx_hal_flash_ramfunc.c ****   }
 209              		.loc 1 621 12 is_stmt 0 view .LVU62
 210 00c4 0120     		movs	r0, #1
 211              	.L12:
 626:Drivers/STM32L1xx_HAL_Driver/Src/stm32l1xx_hal_flash_ramfunc.c **** }
 212              		.loc 1 626 1 view .LVU63
 213 00c6 08BD     		pop	{r3, pc}
 214              	.LVL11:
 215              	.L15:
 599:Drivers/STM32L1xx_HAL_Driver/Src/stm32l1xx_hal_flash_ramfunc.c ****     }
 216              		.loc 1 599 14 view .LVU64
 217 00c8 0320     		movs	r0, #3
 218              	.LVL12:
 599:Drivers/STM32L1xx_HAL_Driver/Src/stm32l1xx_hal_flash_ramfunc.c ****     }
 219              		.loc 1 599 14 view .LVU65
 220 00ca FCE7     		b	.L12
 221              	.L19:
 222              		.align	2
 223              	.L18:
 224 00cc 003C0240 		.word	1073888256
ARM GAS  /tmp/ccJ0rBCo.s 			page 16


 225              		.cfi_endproc
 226              	.LFE81:
 228              		.align	1
 229              		.global	HAL_FLASHEx_EnableRunPowerDown
 230              		.syntax unified
 231              		.thumb
 232              		.thumb_func
 233              		.fpu softvfp
 235              	HAL_FLASHEx_EnableRunPowerDown:
 236              	.LFB72:
 114:Drivers/STM32L1xx_HAL_Driver/Src/stm32l1xx_hal_flash_ramfunc.c ****   /* Enable the Power Down in Run mode*/
 237              		.loc 1 114 1 is_stmt 1 view -0
 238              		.cfi_startproc
 239              		@ args = 0, pretend = 0, frame = 0
 240              		@ frame_needed = 0, uses_anonymous_args = 0
 241              		@ link register save eliminated.
 116:Drivers/STM32L1xx_HAL_Driver/Src/stm32l1xx_hal_flash_ramfunc.c **** 
 242              		.loc 1 116 3 view .LVU67
 116:Drivers/STM32L1xx_HAL_Driver/Src/stm32l1xx_hal_flash_ramfunc.c **** 
 243              		.loc 1 116 3 view .LVU68
 244 00d0 054B     		ldr	r3, .L21
 245 00d2 064A     		ldr	r2, .L21+4
 246 00d4 9A60     		str	r2, [r3, #8]
 116:Drivers/STM32L1xx_HAL_Driver/Src/stm32l1xx_hal_flash_ramfunc.c **** 
 247              		.loc 1 116 3 view .LVU69
 248 00d6 064A     		ldr	r2, .L21+8
 249 00d8 9A60     		str	r2, [r3, #8]
 116:Drivers/STM32L1xx_HAL_Driver/Src/stm32l1xx_hal_flash_ramfunc.c **** 
 250              		.loc 1 116 3 view .LVU70
 251 00da 1A68     		ldr	r2, [r3]
 252 00dc 42F01002 		orr	r2, r2, #16
 253 00e0 1A60     		str	r2, [r3]
 116:Drivers/STM32L1xx_HAL_Driver/Src/stm32l1xx_hal_flash_ramfunc.c **** 
 254              		.loc 1 116 3 view .LVU71
 118:Drivers/STM32L1xx_HAL_Driver/Src/stm32l1xx_hal_flash_ramfunc.c **** }
 255              		.loc 1 118 3 view .LVU72
 119:Drivers/STM32L1xx_HAL_Driver/Src/stm32l1xx_hal_flash_ramfunc.c **** 
 256              		.loc 1 119 1 is_stmt 0 view .LVU73
 257 00e2 0020     		movs	r0, #0
 258 00e4 7047     		bx	lr
 259              	.L22:
 260 00e6 00BF     		.align	2
 261              	.L21:
 262 00e8 003C0240 		.word	1073888256
 263 00ec 37261504 		.word	68494903
 264 00f0 FDFCFBFA 		.word	-84148995
 265              		.cfi_endproc
 266              	.LFE72:
 268              		.align	1
 269              		.global	HAL_FLASHEx_DisableRunPowerDown
 270              		.syntax unified
 271              		.thumb
 272              		.thumb_func
 273              		.fpu softvfp
 275              	HAL_FLASHEx_DisableRunPowerDown:
 276              	.LFB73:
 127:Drivers/STM32L1xx_HAL_Driver/Src/stm32l1xx_hal_flash_ramfunc.c ****   /* Disable the Power Down in Run mode*/
ARM GAS  /tmp/ccJ0rBCo.s 			page 17


 277              		.loc 1 127 1 is_stmt 1 view -0
 278              		.cfi_startproc
 279              		@ args = 0, pretend = 0, frame = 0
 280              		@ frame_needed = 0, uses_anonymous_args = 0
 281              		@ link register save eliminated.
 129:Drivers/STM32L1xx_HAL_Driver/Src/stm32l1xx_hal_flash_ramfunc.c **** 
 282              		.loc 1 129 3 view .LVU75
 129:Drivers/STM32L1xx_HAL_Driver/Src/stm32l1xx_hal_flash_ramfunc.c **** 
 283              		.loc 1 129 3 view .LVU76
 284 00f4 054B     		ldr	r3, .L24
 285 00f6 064A     		ldr	r2, .L24+4
 286 00f8 9A60     		str	r2, [r3, #8]
 129:Drivers/STM32L1xx_HAL_Driver/Src/stm32l1xx_hal_flash_ramfunc.c **** 
 287              		.loc 1 129 3 view .LVU77
 288 00fa 064A     		ldr	r2, .L24+8
 289 00fc 9A60     		str	r2, [r3, #8]
 129:Drivers/STM32L1xx_HAL_Driver/Src/stm32l1xx_hal_flash_ramfunc.c **** 
 290              		.loc 1 129 3 view .LVU78
 291 00fe 1A68     		ldr	r2, [r3]
 292 0100 22F01002 		bic	r2, r2, #16
 293 0104 1A60     		str	r2, [r3]
 129:Drivers/STM32L1xx_HAL_Driver/Src/stm32l1xx_hal_flash_ramfunc.c **** 
 294              		.loc 1 129 3 view .LVU79
 131:Drivers/STM32L1xx_HAL_Driver/Src/stm32l1xx_hal_flash_ramfunc.c **** }
 295              		.loc 1 131 3 view .LVU80
 132:Drivers/STM32L1xx_HAL_Driver/Src/stm32l1xx_hal_flash_ramfunc.c **** 
 296              		.loc 1 132 1 is_stmt 0 view .LVU81
 297 0106 0020     		movs	r0, #0
 298 0108 7047     		bx	lr
 299              	.L25:
 300 010a 00BF     		.align	2
 301              	.L24:
 302 010c 003C0240 		.word	1073888256
 303 0110 37261504 		.word	68494903
 304 0114 FDFCFBFA 		.word	-84148995
 305              		.cfi_endproc
 306              	.LFE73:
 308              		.align	1
 309              		.global	HAL_FLASHEx_EraseParallelPage
 310              		.syntax unified
 311              		.thumb
 312              		.thumb_func
 313              		.fpu softvfp
 315              	HAL_FLASHEx_EraseParallelPage:
 316              	.LVL13:
 317              	.LFB74:
 164:Drivers/STM32L1xx_HAL_Driver/Src/stm32l1xx_hal_flash_ramfunc.c ****   HAL_StatusTypeDef status = HAL_OK;
 318              		.loc 1 164 1 is_stmt 1 view -0
 319              		.cfi_startproc
 320              		@ args = 0, pretend = 0, frame = 0
 321              		@ frame_needed = 0, uses_anonymous_args = 0
 164:Drivers/STM32L1xx_HAL_Driver/Src/stm32l1xx_hal_flash_ramfunc.c ****   HAL_StatusTypeDef status = HAL_OK;
 322              		.loc 1 164 1 is_stmt 0 view .LVU83
 323 0118 70B5     		push	{r4, r5, r6, lr}
 324              	.LCFI1:
 325              		.cfi_def_cfa_offset 16
 326              		.cfi_offset 4, -16
ARM GAS  /tmp/ccJ0rBCo.s 			page 18


 327              		.cfi_offset 5, -12
 328              		.cfi_offset 6, -8
 329              		.cfi_offset 14, -4
 330 011a 0646     		mov	r6, r0
 331 011c 0D46     		mov	r5, r1
 165:Drivers/STM32L1xx_HAL_Driver/Src/stm32l1xx_hal_flash_ramfunc.c **** 
 332              		.loc 1 165 3 is_stmt 1 view .LVU84
 333              	.LVL14:
 168:Drivers/STM32L1xx_HAL_Driver/Src/stm32l1xx_hal_flash_ramfunc.c ****   
 334              		.loc 1 168 3 view .LVU85
 168:Drivers/STM32L1xx_HAL_Driver/Src/stm32l1xx_hal_flash_ramfunc.c ****   
 335              		.loc 1 168 12 is_stmt 0 view .LVU86
 336 011e 4CF25030 		movw	r0, #50000
 337              	.LVL15:
 168:Drivers/STM32L1xx_HAL_Driver/Src/stm32l1xx_hal_flash_ramfunc.c ****   
 338              		.loc 1 168 12 view .LVU87
 339 0122 FFF7A5FF 		bl	FLASHRAM_WaitForLastOperation
 340              	.LVL16:
 170:Drivers/STM32L1xx_HAL_Driver/Src/stm32l1xx_hal_flash_ramfunc.c ****   {
 341              		.loc 1 170 3 is_stmt 1 view .LVU88
 170:Drivers/STM32L1xx_HAL_Driver/Src/stm32l1xx_hal_flash_ramfunc.c ****   {
 342              		.loc 1 170 5 is_stmt 0 view .LVU89
 343 0126 00B1     		cbz	r0, .L29
 344              	.L27:
 345              	.LVL17:
 191:Drivers/STM32L1xx_HAL_Driver/Src/stm32l1xx_hal_flash_ramfunc.c **** }
 346              		.loc 1 191 3 is_stmt 1 view .LVU90
 192:Drivers/STM32L1xx_HAL_Driver/Src/stm32l1xx_hal_flash_ramfunc.c **** 
 347              		.loc 1 192 1 is_stmt 0 view .LVU91
 348 0128 70BD     		pop	{r4, r5, r6, pc}
 349              	.LVL18:
 350              	.L29:
 173:Drivers/STM32L1xx_HAL_Driver/Src/stm32l1xx_hal_flash_ramfunc.c ****     SET_BIT(FLASH->PECR, FLASH_PECR_ERASE);
 351              		.loc 1 173 5 is_stmt 1 view .LVU92
 352 012a 104C     		ldr	r4, .L30
 353 012c 6368     		ldr	r3, [r4, #4]
 354 012e 43F40043 		orr	r3, r3, #32768
 355 0132 6360     		str	r3, [r4, #4]
 174:Drivers/STM32L1xx_HAL_Driver/Src/stm32l1xx_hal_flash_ramfunc.c ****     SET_BIT(FLASH->PECR, FLASH_PECR_PROG);
 356              		.loc 1 174 5 view .LVU93
 357 0134 6368     		ldr	r3, [r4, #4]
 358 0136 43F40073 		orr	r3, r3, #512
 359 013a 6360     		str	r3, [r4, #4]
 175:Drivers/STM32L1xx_HAL_Driver/Src/stm32l1xx_hal_flash_ramfunc.c ****   
 360              		.loc 1 175 5 view .LVU94
 361 013c 6368     		ldr	r3, [r4, #4]
 362 013e 43F00803 		orr	r3, r3, #8
 363 0142 6360     		str	r3, [r4, #4]
 178:Drivers/STM32L1xx_HAL_Driver/Src/stm32l1xx_hal_flash_ramfunc.c ****     /* Write 00000000h to the first word of the second program page to erase */    
 364              		.loc 1 178 5 view .LVU95
 178:Drivers/STM32L1xx_HAL_Driver/Src/stm32l1xx_hal_flash_ramfunc.c ****     /* Write 00000000h to the first word of the second program page to erase */    
 365              		.loc 1 178 37 is_stmt 0 view .LVU96
 366 0144 0023     		movs	r3, #0
 367 0146 3360     		str	r3, [r6]
 180:Drivers/STM32L1xx_HAL_Driver/Src/stm32l1xx_hal_flash_ramfunc.c ****  
 368              		.loc 1 180 5 is_stmt 1 view .LVU97
 180:Drivers/STM32L1xx_HAL_Driver/Src/stm32l1xx_hal_flash_ramfunc.c ****  
ARM GAS  /tmp/ccJ0rBCo.s 			page 19


 369              		.loc 1 180 37 is_stmt 0 view .LVU98
 370 0148 2B60     		str	r3, [r5]
 183:Drivers/STM32L1xx_HAL_Driver/Src/stm32l1xx_hal_flash_ramfunc.c **** 
 371              		.loc 1 183 5 is_stmt 1 view .LVU99
 183:Drivers/STM32L1xx_HAL_Driver/Src/stm32l1xx_hal_flash_ramfunc.c **** 
 372              		.loc 1 183 14 is_stmt 0 view .LVU100
 373 014a 4CF25030 		movw	r0, #50000
 374 014e FFF78FFF 		bl	FLASHRAM_WaitForLastOperation
 375              	.LVL19:
 186:Drivers/STM32L1xx_HAL_Driver/Src/stm32l1xx_hal_flash_ramfunc.c ****     CLEAR_BIT(FLASH->PECR, FLASH_PECR_ERASE);
 376              		.loc 1 186 5 is_stmt 1 view .LVU101
 377 0152 6368     		ldr	r3, [r4, #4]
 378 0154 23F00803 		bic	r3, r3, #8
 379 0158 6360     		str	r3, [r4, #4]
 187:Drivers/STM32L1xx_HAL_Driver/Src/stm32l1xx_hal_flash_ramfunc.c ****     CLEAR_BIT(FLASH->PECR, FLASH_PECR_PARALLBANK);
 380              		.loc 1 187 5 view .LVU102
 381 015a 6368     		ldr	r3, [r4, #4]
 382 015c 23F40073 		bic	r3, r3, #512
 383 0160 6360     		str	r3, [r4, #4]
 188:Drivers/STM32L1xx_HAL_Driver/Src/stm32l1xx_hal_flash_ramfunc.c ****   }     
 384              		.loc 1 188 5 view .LVU103
 385 0162 6368     		ldr	r3, [r4, #4]
 386 0164 23F40043 		bic	r3, r3, #32768
 387 0168 6360     		str	r3, [r4, #4]
 388 016a DDE7     		b	.L27
 389              	.L31:
 390              		.align	2
 391              	.L30:
 392 016c 003C0240 		.word	1073888256
 393              		.cfi_endproc
 394              	.LFE74:
 396              		.align	1
 397              		.global	HAL_FLASHEx_ProgramParallelHalfPage
 398              		.syntax unified
 399              		.thumb
 400              		.thumb_func
 401              		.fpu softvfp
 403              	HAL_FLASHEx_ProgramParallelHalfPage:
 404              	.LVL20:
 405              	.LFB75:
 225:Drivers/STM32L1xx_HAL_Driver/Src/stm32l1xx_hal_flash_ramfunc.c ****   uint32_t primask_bit;
 406              		.loc 1 225 1 view -0
 407              		.cfi_startproc
 408              		@ args = 0, pretend = 0, frame = 0
 409              		@ frame_needed = 0, uses_anonymous_args = 0
 225:Drivers/STM32L1xx_HAL_Driver/Src/stm32l1xx_hal_flash_ramfunc.c ****   uint32_t primask_bit;
 410              		.loc 1 225 1 is_stmt 0 view .LVU105
 411 0170 2DE9F843 		push	{r3, r4, r5, r6, r7, r8, r9, lr}
 412              	.LCFI2:
 413              		.cfi_def_cfa_offset 32
 414              		.cfi_offset 3, -32
 415              		.cfi_offset 4, -28
 416              		.cfi_offset 5, -24
 417              		.cfi_offset 6, -20
 418              		.cfi_offset 7, -16
 419              		.cfi_offset 8, -12
 420              		.cfi_offset 9, -8
ARM GAS  /tmp/ccJ0rBCo.s 			page 20


 421              		.cfi_offset 14, -4
 422 0174 8146     		mov	r9, r0
 423 0176 0E46     		mov	r6, r1
 424 0178 1746     		mov	r7, r2
 425 017a 1D46     		mov	r5, r3
 226:Drivers/STM32L1xx_HAL_Driver/Src/stm32l1xx_hal_flash_ramfunc.c ****   uint32_t count = 0U; 
 426              		.loc 1 226 3 is_stmt 1 view .LVU106
 227:Drivers/STM32L1xx_HAL_Driver/Src/stm32l1xx_hal_flash_ramfunc.c ****   HAL_StatusTypeDef status = HAL_OK;
 427              		.loc 1 227 3 view .LVU107
 428              	.LVL21:
 228:Drivers/STM32L1xx_HAL_Driver/Src/stm32l1xx_hal_flash_ramfunc.c **** 
 429              		.loc 1 228 3 view .LVU108
 231:Drivers/STM32L1xx_HAL_Driver/Src/stm32l1xx_hal_flash_ramfunc.c ****   
 430              		.loc 1 231 3 view .LVU109
 231:Drivers/STM32L1xx_HAL_Driver/Src/stm32l1xx_hal_flash_ramfunc.c ****   
 431              		.loc 1 231 12 is_stmt 0 view .LVU110
 432 017c 4CF25030 		movw	r0, #50000
 433              	.LVL22:
 231:Drivers/STM32L1xx_HAL_Driver/Src/stm32l1xx_hal_flash_ramfunc.c ****   
 434              		.loc 1 231 12 view .LVU111
 435 0180 FFF776FF 		bl	FLASHRAM_WaitForLastOperation
 436              	.LVL23:
 233:Drivers/STM32L1xx_HAL_Driver/Src/stm32l1xx_hal_flash_ramfunc.c ****   {
 437              		.loc 1 233 3 is_stmt 1 view .LVU112
 233:Drivers/STM32L1xx_HAL_Driver/Src/stm32l1xx_hal_flash_ramfunc.c ****   {
 438              		.loc 1 233 5 is_stmt 0 view .LVU113
 439 0184 0028     		cmp	r0, #0
 440 0186 34D1     		bne	.L33
 236:Drivers/STM32L1xx_HAL_Driver/Src/stm32l1xx_hal_flash_ramfunc.c ****     __disable_irq();
 441              		.loc 1 236 5 is_stmt 1 view .LVU114
 442              	.LBB26:
 443              	.LBI26:
 444              		.file 2 "Drivers/CMSIS/Include/cmsis_gcc.h"
   1:Drivers/CMSIS/Include/cmsis_gcc.h **** /**************************************************************************//**
   2:Drivers/CMSIS/Include/cmsis_gcc.h ****  * @file     cmsis_gcc.h
   3:Drivers/CMSIS/Include/cmsis_gcc.h ****  * @brief    CMSIS compiler GCC header file
   4:Drivers/CMSIS/Include/cmsis_gcc.h ****  * @version  V5.0.4
   5:Drivers/CMSIS/Include/cmsis_gcc.h ****  * @date     09. April 2018
   6:Drivers/CMSIS/Include/cmsis_gcc.h ****  ******************************************************************************/
   7:Drivers/CMSIS/Include/cmsis_gcc.h **** /*
   8:Drivers/CMSIS/Include/cmsis_gcc.h ****  * Copyright (c) 2009-2018 Arm Limited. All rights reserved.
   9:Drivers/CMSIS/Include/cmsis_gcc.h ****  *
  10:Drivers/CMSIS/Include/cmsis_gcc.h ****  * SPDX-License-Identifier: Apache-2.0
  11:Drivers/CMSIS/Include/cmsis_gcc.h ****  *
  12:Drivers/CMSIS/Include/cmsis_gcc.h ****  * Licensed under the Apache License, Version 2.0 (the License); you may
  13:Drivers/CMSIS/Include/cmsis_gcc.h ****  * not use this file except in compliance with the License.
  14:Drivers/CMSIS/Include/cmsis_gcc.h ****  * You may obtain a copy of the License at
  15:Drivers/CMSIS/Include/cmsis_gcc.h ****  *
  16:Drivers/CMSIS/Include/cmsis_gcc.h ****  * www.apache.org/licenses/LICENSE-2.0
  17:Drivers/CMSIS/Include/cmsis_gcc.h ****  *
  18:Drivers/CMSIS/Include/cmsis_gcc.h ****  * Unless required by applicable law or agreed to in writing, software
  19:Drivers/CMSIS/Include/cmsis_gcc.h ****  * distributed under the License is distributed on an AS IS BASIS, WITHOUT
  20:Drivers/CMSIS/Include/cmsis_gcc.h ****  * WARRANTIES OR CONDITIONS OF ANY KIND, either express or implied.
  21:Drivers/CMSIS/Include/cmsis_gcc.h ****  * See the License for the specific language governing permissions and
  22:Drivers/CMSIS/Include/cmsis_gcc.h ****  * limitations under the License.
  23:Drivers/CMSIS/Include/cmsis_gcc.h ****  */
  24:Drivers/CMSIS/Include/cmsis_gcc.h **** 
ARM GAS  /tmp/ccJ0rBCo.s 			page 21


  25:Drivers/CMSIS/Include/cmsis_gcc.h **** #ifndef __CMSIS_GCC_H
  26:Drivers/CMSIS/Include/cmsis_gcc.h **** #define __CMSIS_GCC_H
  27:Drivers/CMSIS/Include/cmsis_gcc.h **** 
  28:Drivers/CMSIS/Include/cmsis_gcc.h **** /* ignore some GCC warnings */
  29:Drivers/CMSIS/Include/cmsis_gcc.h **** #pragma GCC diagnostic push
  30:Drivers/CMSIS/Include/cmsis_gcc.h **** #pragma GCC diagnostic ignored "-Wsign-conversion"
  31:Drivers/CMSIS/Include/cmsis_gcc.h **** #pragma GCC diagnostic ignored "-Wconversion"
  32:Drivers/CMSIS/Include/cmsis_gcc.h **** #pragma GCC diagnostic ignored "-Wunused-parameter"
  33:Drivers/CMSIS/Include/cmsis_gcc.h **** 
  34:Drivers/CMSIS/Include/cmsis_gcc.h **** /* Fallback for __has_builtin */
  35:Drivers/CMSIS/Include/cmsis_gcc.h **** #ifndef __has_builtin
  36:Drivers/CMSIS/Include/cmsis_gcc.h ****   #define __has_builtin(x) (0)
  37:Drivers/CMSIS/Include/cmsis_gcc.h **** #endif
  38:Drivers/CMSIS/Include/cmsis_gcc.h **** 
  39:Drivers/CMSIS/Include/cmsis_gcc.h **** /* CMSIS compiler specific defines */
  40:Drivers/CMSIS/Include/cmsis_gcc.h **** #ifndef   __ASM
  41:Drivers/CMSIS/Include/cmsis_gcc.h ****   #define __ASM                                  __asm
  42:Drivers/CMSIS/Include/cmsis_gcc.h **** #endif
  43:Drivers/CMSIS/Include/cmsis_gcc.h **** #ifndef   __INLINE
  44:Drivers/CMSIS/Include/cmsis_gcc.h ****   #define __INLINE                               inline
  45:Drivers/CMSIS/Include/cmsis_gcc.h **** #endif
  46:Drivers/CMSIS/Include/cmsis_gcc.h **** #ifndef   __STATIC_INLINE
  47:Drivers/CMSIS/Include/cmsis_gcc.h ****   #define __STATIC_INLINE                        static inline
  48:Drivers/CMSIS/Include/cmsis_gcc.h **** #endif
  49:Drivers/CMSIS/Include/cmsis_gcc.h **** #ifndef   __STATIC_FORCEINLINE                 
  50:Drivers/CMSIS/Include/cmsis_gcc.h ****   #define __STATIC_FORCEINLINE                   __attribute__((always_inline)) static inline
  51:Drivers/CMSIS/Include/cmsis_gcc.h **** #endif                                           
  52:Drivers/CMSIS/Include/cmsis_gcc.h **** #ifndef   __NO_RETURN
  53:Drivers/CMSIS/Include/cmsis_gcc.h ****   #define __NO_RETURN                            __attribute__((__noreturn__))
  54:Drivers/CMSIS/Include/cmsis_gcc.h **** #endif
  55:Drivers/CMSIS/Include/cmsis_gcc.h **** #ifndef   __USED
  56:Drivers/CMSIS/Include/cmsis_gcc.h ****   #define __USED                                 __attribute__((used))
  57:Drivers/CMSIS/Include/cmsis_gcc.h **** #endif
  58:Drivers/CMSIS/Include/cmsis_gcc.h **** #ifndef   __WEAK
  59:Drivers/CMSIS/Include/cmsis_gcc.h ****   #define __WEAK                                 __attribute__((weak))
  60:Drivers/CMSIS/Include/cmsis_gcc.h **** #endif
  61:Drivers/CMSIS/Include/cmsis_gcc.h **** #ifndef   __PACKED
  62:Drivers/CMSIS/Include/cmsis_gcc.h ****   #define __PACKED                               __attribute__((packed, aligned(1)))
  63:Drivers/CMSIS/Include/cmsis_gcc.h **** #endif
  64:Drivers/CMSIS/Include/cmsis_gcc.h **** #ifndef   __PACKED_STRUCT
  65:Drivers/CMSIS/Include/cmsis_gcc.h ****   #define __PACKED_STRUCT                        struct __attribute__((packed, aligned(1)))
  66:Drivers/CMSIS/Include/cmsis_gcc.h **** #endif
  67:Drivers/CMSIS/Include/cmsis_gcc.h **** #ifndef   __PACKED_UNION
  68:Drivers/CMSIS/Include/cmsis_gcc.h ****   #define __PACKED_UNION                         union __attribute__((packed, aligned(1)))
  69:Drivers/CMSIS/Include/cmsis_gcc.h **** #endif
  70:Drivers/CMSIS/Include/cmsis_gcc.h **** #ifndef   __UNALIGNED_UINT32        /* deprecated */
  71:Drivers/CMSIS/Include/cmsis_gcc.h ****   #pragma GCC diagnostic push
  72:Drivers/CMSIS/Include/cmsis_gcc.h ****   #pragma GCC diagnostic ignored "-Wpacked"
  73:Drivers/CMSIS/Include/cmsis_gcc.h ****   #pragma GCC diagnostic ignored "-Wattributes"
  74:Drivers/CMSIS/Include/cmsis_gcc.h ****   struct __attribute__((packed)) T_UINT32 { uint32_t v; };
  75:Drivers/CMSIS/Include/cmsis_gcc.h ****   #pragma GCC diagnostic pop
  76:Drivers/CMSIS/Include/cmsis_gcc.h ****   #define __UNALIGNED_UINT32(x)                  (((struct T_UINT32 *)(x))->v)
  77:Drivers/CMSIS/Include/cmsis_gcc.h **** #endif
  78:Drivers/CMSIS/Include/cmsis_gcc.h **** #ifndef   __UNALIGNED_UINT16_WRITE
  79:Drivers/CMSIS/Include/cmsis_gcc.h ****   #pragma GCC diagnostic push
  80:Drivers/CMSIS/Include/cmsis_gcc.h ****   #pragma GCC diagnostic ignored "-Wpacked"
  81:Drivers/CMSIS/Include/cmsis_gcc.h ****   #pragma GCC diagnostic ignored "-Wattributes"
ARM GAS  /tmp/ccJ0rBCo.s 			page 22


  82:Drivers/CMSIS/Include/cmsis_gcc.h ****   __PACKED_STRUCT T_UINT16_WRITE { uint16_t v; };
  83:Drivers/CMSIS/Include/cmsis_gcc.h ****   #pragma GCC diagnostic pop
  84:Drivers/CMSIS/Include/cmsis_gcc.h ****   #define __UNALIGNED_UINT16_WRITE(addr, val)    (void)((((struct T_UINT16_WRITE *)(void *)(addr))-
  85:Drivers/CMSIS/Include/cmsis_gcc.h **** #endif
  86:Drivers/CMSIS/Include/cmsis_gcc.h **** #ifndef   __UNALIGNED_UINT16_READ
  87:Drivers/CMSIS/Include/cmsis_gcc.h ****   #pragma GCC diagnostic push
  88:Drivers/CMSIS/Include/cmsis_gcc.h ****   #pragma GCC diagnostic ignored "-Wpacked"
  89:Drivers/CMSIS/Include/cmsis_gcc.h ****   #pragma GCC diagnostic ignored "-Wattributes"
  90:Drivers/CMSIS/Include/cmsis_gcc.h ****   __PACKED_STRUCT T_UINT16_READ { uint16_t v; };
  91:Drivers/CMSIS/Include/cmsis_gcc.h ****   #pragma GCC diagnostic pop
  92:Drivers/CMSIS/Include/cmsis_gcc.h ****   #define __UNALIGNED_UINT16_READ(addr)          (((const struct T_UINT16_READ *)(const void *)(add
  93:Drivers/CMSIS/Include/cmsis_gcc.h **** #endif
  94:Drivers/CMSIS/Include/cmsis_gcc.h **** #ifndef   __UNALIGNED_UINT32_WRITE
  95:Drivers/CMSIS/Include/cmsis_gcc.h ****   #pragma GCC diagnostic push
  96:Drivers/CMSIS/Include/cmsis_gcc.h ****   #pragma GCC diagnostic ignored "-Wpacked"
  97:Drivers/CMSIS/Include/cmsis_gcc.h ****   #pragma GCC diagnostic ignored "-Wattributes"
  98:Drivers/CMSIS/Include/cmsis_gcc.h ****   __PACKED_STRUCT T_UINT32_WRITE { uint32_t v; };
  99:Drivers/CMSIS/Include/cmsis_gcc.h ****   #pragma GCC diagnostic pop
 100:Drivers/CMSIS/Include/cmsis_gcc.h ****   #define __UNALIGNED_UINT32_WRITE(addr, val)    (void)((((struct T_UINT32_WRITE *)(void *)(addr))-
 101:Drivers/CMSIS/Include/cmsis_gcc.h **** #endif
 102:Drivers/CMSIS/Include/cmsis_gcc.h **** #ifndef   __UNALIGNED_UINT32_READ
 103:Drivers/CMSIS/Include/cmsis_gcc.h ****   #pragma GCC diagnostic push
 104:Drivers/CMSIS/Include/cmsis_gcc.h ****   #pragma GCC diagnostic ignored "-Wpacked"
 105:Drivers/CMSIS/Include/cmsis_gcc.h ****   #pragma GCC diagnostic ignored "-Wattributes"
 106:Drivers/CMSIS/Include/cmsis_gcc.h ****   __PACKED_STRUCT T_UINT32_READ { uint32_t v; };
 107:Drivers/CMSIS/Include/cmsis_gcc.h ****   #pragma GCC diagnostic pop
 108:Drivers/CMSIS/Include/cmsis_gcc.h ****   #define __UNALIGNED_UINT32_READ(addr)          (((const struct T_UINT32_READ *)(const void *)(add
 109:Drivers/CMSIS/Include/cmsis_gcc.h **** #endif
 110:Drivers/CMSIS/Include/cmsis_gcc.h **** #ifndef   __ALIGNED
 111:Drivers/CMSIS/Include/cmsis_gcc.h ****   #define __ALIGNED(x)                           __attribute__((aligned(x)))
 112:Drivers/CMSIS/Include/cmsis_gcc.h **** #endif
 113:Drivers/CMSIS/Include/cmsis_gcc.h **** #ifndef   __RESTRICT
 114:Drivers/CMSIS/Include/cmsis_gcc.h ****   #define __RESTRICT                             __restrict
 115:Drivers/CMSIS/Include/cmsis_gcc.h **** #endif
 116:Drivers/CMSIS/Include/cmsis_gcc.h **** 
 117:Drivers/CMSIS/Include/cmsis_gcc.h **** 
 118:Drivers/CMSIS/Include/cmsis_gcc.h **** /* ###########################  Core Function Access  ########################### */
 119:Drivers/CMSIS/Include/cmsis_gcc.h **** /** \ingroup  CMSIS_Core_FunctionInterface
 120:Drivers/CMSIS/Include/cmsis_gcc.h ****     \defgroup CMSIS_Core_RegAccFunctions CMSIS Core Register Access Functions
 121:Drivers/CMSIS/Include/cmsis_gcc.h ****   @{
 122:Drivers/CMSIS/Include/cmsis_gcc.h ****  */
 123:Drivers/CMSIS/Include/cmsis_gcc.h **** 
 124:Drivers/CMSIS/Include/cmsis_gcc.h **** /**
 125:Drivers/CMSIS/Include/cmsis_gcc.h ****   \brief   Enable IRQ Interrupts
 126:Drivers/CMSIS/Include/cmsis_gcc.h ****   \details Enables IRQ interrupts by clearing the I-bit in the CPSR.
 127:Drivers/CMSIS/Include/cmsis_gcc.h ****            Can only be executed in Privileged modes.
 128:Drivers/CMSIS/Include/cmsis_gcc.h ****  */
 129:Drivers/CMSIS/Include/cmsis_gcc.h **** __STATIC_FORCEINLINE void __enable_irq(void)
 130:Drivers/CMSIS/Include/cmsis_gcc.h **** {
 131:Drivers/CMSIS/Include/cmsis_gcc.h ****   __ASM volatile ("cpsie i" : : : "memory");
 132:Drivers/CMSIS/Include/cmsis_gcc.h **** }
 133:Drivers/CMSIS/Include/cmsis_gcc.h **** 
 134:Drivers/CMSIS/Include/cmsis_gcc.h **** 
 135:Drivers/CMSIS/Include/cmsis_gcc.h **** /**
 136:Drivers/CMSIS/Include/cmsis_gcc.h ****   \brief   Disable IRQ Interrupts
 137:Drivers/CMSIS/Include/cmsis_gcc.h ****   \details Disables IRQ interrupts by setting the I-bit in the CPSR.
 138:Drivers/CMSIS/Include/cmsis_gcc.h ****            Can only be executed in Privileged modes.
ARM GAS  /tmp/ccJ0rBCo.s 			page 23


 139:Drivers/CMSIS/Include/cmsis_gcc.h ****  */
 140:Drivers/CMSIS/Include/cmsis_gcc.h **** __STATIC_FORCEINLINE void __disable_irq(void)
 141:Drivers/CMSIS/Include/cmsis_gcc.h **** {
 142:Drivers/CMSIS/Include/cmsis_gcc.h ****   __ASM volatile ("cpsid i" : : : "memory");
 143:Drivers/CMSIS/Include/cmsis_gcc.h **** }
 144:Drivers/CMSIS/Include/cmsis_gcc.h **** 
 145:Drivers/CMSIS/Include/cmsis_gcc.h **** 
 146:Drivers/CMSIS/Include/cmsis_gcc.h **** /**
 147:Drivers/CMSIS/Include/cmsis_gcc.h ****   \brief   Get Control Register
 148:Drivers/CMSIS/Include/cmsis_gcc.h ****   \details Returns the content of the Control Register.
 149:Drivers/CMSIS/Include/cmsis_gcc.h ****   \return               Control Register value
 150:Drivers/CMSIS/Include/cmsis_gcc.h ****  */
 151:Drivers/CMSIS/Include/cmsis_gcc.h **** __STATIC_FORCEINLINE uint32_t __get_CONTROL(void)
 152:Drivers/CMSIS/Include/cmsis_gcc.h **** {
 153:Drivers/CMSIS/Include/cmsis_gcc.h ****   uint32_t result;
 154:Drivers/CMSIS/Include/cmsis_gcc.h **** 
 155:Drivers/CMSIS/Include/cmsis_gcc.h ****   __ASM volatile ("MRS %0, control" : "=r" (result) );
 156:Drivers/CMSIS/Include/cmsis_gcc.h ****   return(result);
 157:Drivers/CMSIS/Include/cmsis_gcc.h **** }
 158:Drivers/CMSIS/Include/cmsis_gcc.h **** 
 159:Drivers/CMSIS/Include/cmsis_gcc.h **** 
 160:Drivers/CMSIS/Include/cmsis_gcc.h **** #if (defined (__ARM_FEATURE_CMSE ) && (__ARM_FEATURE_CMSE == 3))
 161:Drivers/CMSIS/Include/cmsis_gcc.h **** /**
 162:Drivers/CMSIS/Include/cmsis_gcc.h ****   \brief   Get Control Register (non-secure)
 163:Drivers/CMSIS/Include/cmsis_gcc.h ****   \details Returns the content of the non-secure Control Register when in secure mode.
 164:Drivers/CMSIS/Include/cmsis_gcc.h ****   \return               non-secure Control Register value
 165:Drivers/CMSIS/Include/cmsis_gcc.h ****  */
 166:Drivers/CMSIS/Include/cmsis_gcc.h **** __STATIC_FORCEINLINE uint32_t __TZ_get_CONTROL_NS(void)
 167:Drivers/CMSIS/Include/cmsis_gcc.h **** {
 168:Drivers/CMSIS/Include/cmsis_gcc.h ****   uint32_t result;
 169:Drivers/CMSIS/Include/cmsis_gcc.h **** 
 170:Drivers/CMSIS/Include/cmsis_gcc.h ****   __ASM volatile ("MRS %0, control_ns" : "=r" (result) );
 171:Drivers/CMSIS/Include/cmsis_gcc.h ****   return(result);
 172:Drivers/CMSIS/Include/cmsis_gcc.h **** }
 173:Drivers/CMSIS/Include/cmsis_gcc.h **** #endif
 174:Drivers/CMSIS/Include/cmsis_gcc.h **** 
 175:Drivers/CMSIS/Include/cmsis_gcc.h **** 
 176:Drivers/CMSIS/Include/cmsis_gcc.h **** /**
 177:Drivers/CMSIS/Include/cmsis_gcc.h ****   \brief   Set Control Register
 178:Drivers/CMSIS/Include/cmsis_gcc.h ****   \details Writes the given value to the Control Register.
 179:Drivers/CMSIS/Include/cmsis_gcc.h ****   \param [in]    control  Control Register value to set
 180:Drivers/CMSIS/Include/cmsis_gcc.h ****  */
 181:Drivers/CMSIS/Include/cmsis_gcc.h **** __STATIC_FORCEINLINE void __set_CONTROL(uint32_t control)
 182:Drivers/CMSIS/Include/cmsis_gcc.h **** {
 183:Drivers/CMSIS/Include/cmsis_gcc.h ****   __ASM volatile ("MSR control, %0" : : "r" (control) : "memory");
 184:Drivers/CMSIS/Include/cmsis_gcc.h **** }
 185:Drivers/CMSIS/Include/cmsis_gcc.h **** 
 186:Drivers/CMSIS/Include/cmsis_gcc.h **** 
 187:Drivers/CMSIS/Include/cmsis_gcc.h **** #if (defined (__ARM_FEATURE_CMSE ) && (__ARM_FEATURE_CMSE == 3))
 188:Drivers/CMSIS/Include/cmsis_gcc.h **** /**
 189:Drivers/CMSIS/Include/cmsis_gcc.h ****   \brief   Set Control Register (non-secure)
 190:Drivers/CMSIS/Include/cmsis_gcc.h ****   \details Writes the given value to the non-secure Control Register when in secure state.
 191:Drivers/CMSIS/Include/cmsis_gcc.h ****   \param [in]    control  Control Register value to set
 192:Drivers/CMSIS/Include/cmsis_gcc.h ****  */
 193:Drivers/CMSIS/Include/cmsis_gcc.h **** __STATIC_FORCEINLINE void __TZ_set_CONTROL_NS(uint32_t control)
 194:Drivers/CMSIS/Include/cmsis_gcc.h **** {
 195:Drivers/CMSIS/Include/cmsis_gcc.h ****   __ASM volatile ("MSR control_ns, %0" : : "r" (control) : "memory");
ARM GAS  /tmp/ccJ0rBCo.s 			page 24


 196:Drivers/CMSIS/Include/cmsis_gcc.h **** }
 197:Drivers/CMSIS/Include/cmsis_gcc.h **** #endif
 198:Drivers/CMSIS/Include/cmsis_gcc.h **** 
 199:Drivers/CMSIS/Include/cmsis_gcc.h **** 
 200:Drivers/CMSIS/Include/cmsis_gcc.h **** /**
 201:Drivers/CMSIS/Include/cmsis_gcc.h ****   \brief   Get IPSR Register
 202:Drivers/CMSIS/Include/cmsis_gcc.h ****   \details Returns the content of the IPSR Register.
 203:Drivers/CMSIS/Include/cmsis_gcc.h ****   \return               IPSR Register value
 204:Drivers/CMSIS/Include/cmsis_gcc.h ****  */
 205:Drivers/CMSIS/Include/cmsis_gcc.h **** __STATIC_FORCEINLINE uint32_t __get_IPSR(void)
 206:Drivers/CMSIS/Include/cmsis_gcc.h **** {
 207:Drivers/CMSIS/Include/cmsis_gcc.h ****   uint32_t result;
 208:Drivers/CMSIS/Include/cmsis_gcc.h **** 
 209:Drivers/CMSIS/Include/cmsis_gcc.h ****   __ASM volatile ("MRS %0, ipsr" : "=r" (result) );
 210:Drivers/CMSIS/Include/cmsis_gcc.h ****   return(result);
 211:Drivers/CMSIS/Include/cmsis_gcc.h **** }
 212:Drivers/CMSIS/Include/cmsis_gcc.h **** 
 213:Drivers/CMSIS/Include/cmsis_gcc.h **** 
 214:Drivers/CMSIS/Include/cmsis_gcc.h **** /**
 215:Drivers/CMSIS/Include/cmsis_gcc.h ****   \brief   Get APSR Register
 216:Drivers/CMSIS/Include/cmsis_gcc.h ****   \details Returns the content of the APSR Register.
 217:Drivers/CMSIS/Include/cmsis_gcc.h ****   \return               APSR Register value
 218:Drivers/CMSIS/Include/cmsis_gcc.h ****  */
 219:Drivers/CMSIS/Include/cmsis_gcc.h **** __STATIC_FORCEINLINE uint32_t __get_APSR(void)
 220:Drivers/CMSIS/Include/cmsis_gcc.h **** {
 221:Drivers/CMSIS/Include/cmsis_gcc.h ****   uint32_t result;
 222:Drivers/CMSIS/Include/cmsis_gcc.h **** 
 223:Drivers/CMSIS/Include/cmsis_gcc.h ****   __ASM volatile ("MRS %0, apsr" : "=r" (result) );
 224:Drivers/CMSIS/Include/cmsis_gcc.h ****   return(result);
 225:Drivers/CMSIS/Include/cmsis_gcc.h **** }
 226:Drivers/CMSIS/Include/cmsis_gcc.h **** 
 227:Drivers/CMSIS/Include/cmsis_gcc.h **** 
 228:Drivers/CMSIS/Include/cmsis_gcc.h **** /**
 229:Drivers/CMSIS/Include/cmsis_gcc.h ****   \brief   Get xPSR Register
 230:Drivers/CMSIS/Include/cmsis_gcc.h ****   \details Returns the content of the xPSR Register.
 231:Drivers/CMSIS/Include/cmsis_gcc.h ****   \return               xPSR Register value
 232:Drivers/CMSIS/Include/cmsis_gcc.h ****  */
 233:Drivers/CMSIS/Include/cmsis_gcc.h **** __STATIC_FORCEINLINE uint32_t __get_xPSR(void)
 234:Drivers/CMSIS/Include/cmsis_gcc.h **** {
 235:Drivers/CMSIS/Include/cmsis_gcc.h ****   uint32_t result;
 236:Drivers/CMSIS/Include/cmsis_gcc.h **** 
 237:Drivers/CMSIS/Include/cmsis_gcc.h ****   __ASM volatile ("MRS %0, xpsr" : "=r" (result) );
 238:Drivers/CMSIS/Include/cmsis_gcc.h ****   return(result);
 239:Drivers/CMSIS/Include/cmsis_gcc.h **** }
 240:Drivers/CMSIS/Include/cmsis_gcc.h **** 
 241:Drivers/CMSIS/Include/cmsis_gcc.h **** 
 242:Drivers/CMSIS/Include/cmsis_gcc.h **** /**
 243:Drivers/CMSIS/Include/cmsis_gcc.h ****   \brief   Get Process Stack Pointer
 244:Drivers/CMSIS/Include/cmsis_gcc.h ****   \details Returns the current value of the Process Stack Pointer (PSP).
 245:Drivers/CMSIS/Include/cmsis_gcc.h ****   \return               PSP Register value
 246:Drivers/CMSIS/Include/cmsis_gcc.h ****  */
 247:Drivers/CMSIS/Include/cmsis_gcc.h **** __STATIC_FORCEINLINE uint32_t __get_PSP(void)
 248:Drivers/CMSIS/Include/cmsis_gcc.h **** {
 249:Drivers/CMSIS/Include/cmsis_gcc.h ****   uint32_t result;
 250:Drivers/CMSIS/Include/cmsis_gcc.h **** 
 251:Drivers/CMSIS/Include/cmsis_gcc.h ****   __ASM volatile ("MRS %0, psp"  : "=r" (result) );
 252:Drivers/CMSIS/Include/cmsis_gcc.h ****   return(result);
ARM GAS  /tmp/ccJ0rBCo.s 			page 25


 253:Drivers/CMSIS/Include/cmsis_gcc.h **** }
 254:Drivers/CMSIS/Include/cmsis_gcc.h **** 
 255:Drivers/CMSIS/Include/cmsis_gcc.h **** 
 256:Drivers/CMSIS/Include/cmsis_gcc.h **** #if (defined (__ARM_FEATURE_CMSE ) && (__ARM_FEATURE_CMSE == 3))
 257:Drivers/CMSIS/Include/cmsis_gcc.h **** /**
 258:Drivers/CMSIS/Include/cmsis_gcc.h ****   \brief   Get Process Stack Pointer (non-secure)
 259:Drivers/CMSIS/Include/cmsis_gcc.h ****   \details Returns the current value of the non-secure Process Stack Pointer (PSP) when in secure s
 260:Drivers/CMSIS/Include/cmsis_gcc.h ****   \return               PSP Register value
 261:Drivers/CMSIS/Include/cmsis_gcc.h ****  */
 262:Drivers/CMSIS/Include/cmsis_gcc.h **** __STATIC_FORCEINLINE uint32_t __TZ_get_PSP_NS(void)
 263:Drivers/CMSIS/Include/cmsis_gcc.h **** {
 264:Drivers/CMSIS/Include/cmsis_gcc.h ****   uint32_t result;
 265:Drivers/CMSIS/Include/cmsis_gcc.h **** 
 266:Drivers/CMSIS/Include/cmsis_gcc.h ****   __ASM volatile ("MRS %0, psp_ns"  : "=r" (result) );
 267:Drivers/CMSIS/Include/cmsis_gcc.h ****   return(result);
 268:Drivers/CMSIS/Include/cmsis_gcc.h **** }
 269:Drivers/CMSIS/Include/cmsis_gcc.h **** #endif
 270:Drivers/CMSIS/Include/cmsis_gcc.h **** 
 271:Drivers/CMSIS/Include/cmsis_gcc.h **** 
 272:Drivers/CMSIS/Include/cmsis_gcc.h **** /**
 273:Drivers/CMSIS/Include/cmsis_gcc.h ****   \brief   Set Process Stack Pointer
 274:Drivers/CMSIS/Include/cmsis_gcc.h ****   \details Assigns the given value to the Process Stack Pointer (PSP).
 275:Drivers/CMSIS/Include/cmsis_gcc.h ****   \param [in]    topOfProcStack  Process Stack Pointer value to set
 276:Drivers/CMSIS/Include/cmsis_gcc.h ****  */
 277:Drivers/CMSIS/Include/cmsis_gcc.h **** __STATIC_FORCEINLINE void __set_PSP(uint32_t topOfProcStack)
 278:Drivers/CMSIS/Include/cmsis_gcc.h **** {
 279:Drivers/CMSIS/Include/cmsis_gcc.h ****   __ASM volatile ("MSR psp, %0" : : "r" (topOfProcStack) : );
 280:Drivers/CMSIS/Include/cmsis_gcc.h **** }
 281:Drivers/CMSIS/Include/cmsis_gcc.h **** 
 282:Drivers/CMSIS/Include/cmsis_gcc.h **** 
 283:Drivers/CMSIS/Include/cmsis_gcc.h **** #if (defined (__ARM_FEATURE_CMSE ) && (__ARM_FEATURE_CMSE == 3))
 284:Drivers/CMSIS/Include/cmsis_gcc.h **** /**
 285:Drivers/CMSIS/Include/cmsis_gcc.h ****   \brief   Set Process Stack Pointer (non-secure)
 286:Drivers/CMSIS/Include/cmsis_gcc.h ****   \details Assigns the given value to the non-secure Process Stack Pointer (PSP) when in secure sta
 287:Drivers/CMSIS/Include/cmsis_gcc.h ****   \param [in]    topOfProcStack  Process Stack Pointer value to set
 288:Drivers/CMSIS/Include/cmsis_gcc.h ****  */
 289:Drivers/CMSIS/Include/cmsis_gcc.h **** __STATIC_FORCEINLINE void __TZ_set_PSP_NS(uint32_t topOfProcStack)
 290:Drivers/CMSIS/Include/cmsis_gcc.h **** {
 291:Drivers/CMSIS/Include/cmsis_gcc.h ****   __ASM volatile ("MSR psp_ns, %0" : : "r" (topOfProcStack) : );
 292:Drivers/CMSIS/Include/cmsis_gcc.h **** }
 293:Drivers/CMSIS/Include/cmsis_gcc.h **** #endif
 294:Drivers/CMSIS/Include/cmsis_gcc.h **** 
 295:Drivers/CMSIS/Include/cmsis_gcc.h **** 
 296:Drivers/CMSIS/Include/cmsis_gcc.h **** /**
 297:Drivers/CMSIS/Include/cmsis_gcc.h ****   \brief   Get Main Stack Pointer
 298:Drivers/CMSIS/Include/cmsis_gcc.h ****   \details Returns the current value of the Main Stack Pointer (MSP).
 299:Drivers/CMSIS/Include/cmsis_gcc.h ****   \return               MSP Register value
 300:Drivers/CMSIS/Include/cmsis_gcc.h ****  */
 301:Drivers/CMSIS/Include/cmsis_gcc.h **** __STATIC_FORCEINLINE uint32_t __get_MSP(void)
 302:Drivers/CMSIS/Include/cmsis_gcc.h **** {
 303:Drivers/CMSIS/Include/cmsis_gcc.h ****   uint32_t result;
 304:Drivers/CMSIS/Include/cmsis_gcc.h **** 
 305:Drivers/CMSIS/Include/cmsis_gcc.h ****   __ASM volatile ("MRS %0, msp" : "=r" (result) );
 306:Drivers/CMSIS/Include/cmsis_gcc.h ****   return(result);
 307:Drivers/CMSIS/Include/cmsis_gcc.h **** }
 308:Drivers/CMSIS/Include/cmsis_gcc.h **** 
 309:Drivers/CMSIS/Include/cmsis_gcc.h **** 
ARM GAS  /tmp/ccJ0rBCo.s 			page 26


 310:Drivers/CMSIS/Include/cmsis_gcc.h **** #if (defined (__ARM_FEATURE_CMSE ) && (__ARM_FEATURE_CMSE == 3))
 311:Drivers/CMSIS/Include/cmsis_gcc.h **** /**
 312:Drivers/CMSIS/Include/cmsis_gcc.h ****   \brief   Get Main Stack Pointer (non-secure)
 313:Drivers/CMSIS/Include/cmsis_gcc.h ****   \details Returns the current value of the non-secure Main Stack Pointer (MSP) when in secure stat
 314:Drivers/CMSIS/Include/cmsis_gcc.h ****   \return               MSP Register value
 315:Drivers/CMSIS/Include/cmsis_gcc.h ****  */
 316:Drivers/CMSIS/Include/cmsis_gcc.h **** __STATIC_FORCEINLINE uint32_t __TZ_get_MSP_NS(void)
 317:Drivers/CMSIS/Include/cmsis_gcc.h **** {
 318:Drivers/CMSIS/Include/cmsis_gcc.h ****   uint32_t result;
 319:Drivers/CMSIS/Include/cmsis_gcc.h **** 
 320:Drivers/CMSIS/Include/cmsis_gcc.h ****   __ASM volatile ("MRS %0, msp_ns" : "=r" (result) );
 321:Drivers/CMSIS/Include/cmsis_gcc.h ****   return(result);
 322:Drivers/CMSIS/Include/cmsis_gcc.h **** }
 323:Drivers/CMSIS/Include/cmsis_gcc.h **** #endif
 324:Drivers/CMSIS/Include/cmsis_gcc.h **** 
 325:Drivers/CMSIS/Include/cmsis_gcc.h **** 
 326:Drivers/CMSIS/Include/cmsis_gcc.h **** /**
 327:Drivers/CMSIS/Include/cmsis_gcc.h ****   \brief   Set Main Stack Pointer
 328:Drivers/CMSIS/Include/cmsis_gcc.h ****   \details Assigns the given value to the Main Stack Pointer (MSP).
 329:Drivers/CMSIS/Include/cmsis_gcc.h ****   \param [in]    topOfMainStack  Main Stack Pointer value to set
 330:Drivers/CMSIS/Include/cmsis_gcc.h ****  */
 331:Drivers/CMSIS/Include/cmsis_gcc.h **** __STATIC_FORCEINLINE void __set_MSP(uint32_t topOfMainStack)
 332:Drivers/CMSIS/Include/cmsis_gcc.h **** {
 333:Drivers/CMSIS/Include/cmsis_gcc.h ****   __ASM volatile ("MSR msp, %0" : : "r" (topOfMainStack) : );
 334:Drivers/CMSIS/Include/cmsis_gcc.h **** }
 335:Drivers/CMSIS/Include/cmsis_gcc.h **** 
 336:Drivers/CMSIS/Include/cmsis_gcc.h **** 
 337:Drivers/CMSIS/Include/cmsis_gcc.h **** #if (defined (__ARM_FEATURE_CMSE ) && (__ARM_FEATURE_CMSE == 3))
 338:Drivers/CMSIS/Include/cmsis_gcc.h **** /**
 339:Drivers/CMSIS/Include/cmsis_gcc.h ****   \brief   Set Main Stack Pointer (non-secure)
 340:Drivers/CMSIS/Include/cmsis_gcc.h ****   \details Assigns the given value to the non-secure Main Stack Pointer (MSP) when in secure state.
 341:Drivers/CMSIS/Include/cmsis_gcc.h ****   \param [in]    topOfMainStack  Main Stack Pointer value to set
 342:Drivers/CMSIS/Include/cmsis_gcc.h ****  */
 343:Drivers/CMSIS/Include/cmsis_gcc.h **** __STATIC_FORCEINLINE void __TZ_set_MSP_NS(uint32_t topOfMainStack)
 344:Drivers/CMSIS/Include/cmsis_gcc.h **** {
 345:Drivers/CMSIS/Include/cmsis_gcc.h ****   __ASM volatile ("MSR msp_ns, %0" : : "r" (topOfMainStack) : );
 346:Drivers/CMSIS/Include/cmsis_gcc.h **** }
 347:Drivers/CMSIS/Include/cmsis_gcc.h **** #endif
 348:Drivers/CMSIS/Include/cmsis_gcc.h **** 
 349:Drivers/CMSIS/Include/cmsis_gcc.h **** 
 350:Drivers/CMSIS/Include/cmsis_gcc.h **** #if (defined (__ARM_FEATURE_CMSE ) && (__ARM_FEATURE_CMSE == 3))
 351:Drivers/CMSIS/Include/cmsis_gcc.h **** /**
 352:Drivers/CMSIS/Include/cmsis_gcc.h ****   \brief   Get Stack Pointer (non-secure)
 353:Drivers/CMSIS/Include/cmsis_gcc.h ****   \details Returns the current value of the non-secure Stack Pointer (SP) when in secure state.
 354:Drivers/CMSIS/Include/cmsis_gcc.h ****   \return               SP Register value
 355:Drivers/CMSIS/Include/cmsis_gcc.h ****  */
 356:Drivers/CMSIS/Include/cmsis_gcc.h **** __STATIC_FORCEINLINE uint32_t __TZ_get_SP_NS(void)
 357:Drivers/CMSIS/Include/cmsis_gcc.h **** {
 358:Drivers/CMSIS/Include/cmsis_gcc.h ****   uint32_t result;
 359:Drivers/CMSIS/Include/cmsis_gcc.h **** 
 360:Drivers/CMSIS/Include/cmsis_gcc.h ****   __ASM volatile ("MRS %0, sp_ns" : "=r" (result) );
 361:Drivers/CMSIS/Include/cmsis_gcc.h ****   return(result);
 362:Drivers/CMSIS/Include/cmsis_gcc.h **** }
 363:Drivers/CMSIS/Include/cmsis_gcc.h **** 
 364:Drivers/CMSIS/Include/cmsis_gcc.h **** 
 365:Drivers/CMSIS/Include/cmsis_gcc.h **** /**
 366:Drivers/CMSIS/Include/cmsis_gcc.h ****   \brief   Set Stack Pointer (non-secure)
ARM GAS  /tmp/ccJ0rBCo.s 			page 27


 367:Drivers/CMSIS/Include/cmsis_gcc.h ****   \details Assigns the given value to the non-secure Stack Pointer (SP) when in secure state.
 368:Drivers/CMSIS/Include/cmsis_gcc.h ****   \param [in]    topOfStack  Stack Pointer value to set
 369:Drivers/CMSIS/Include/cmsis_gcc.h ****  */
 370:Drivers/CMSIS/Include/cmsis_gcc.h **** __STATIC_FORCEINLINE void __TZ_set_SP_NS(uint32_t topOfStack)
 371:Drivers/CMSIS/Include/cmsis_gcc.h **** {
 372:Drivers/CMSIS/Include/cmsis_gcc.h ****   __ASM volatile ("MSR sp_ns, %0" : : "r" (topOfStack) : );
 373:Drivers/CMSIS/Include/cmsis_gcc.h **** }
 374:Drivers/CMSIS/Include/cmsis_gcc.h **** #endif
 375:Drivers/CMSIS/Include/cmsis_gcc.h **** 
 376:Drivers/CMSIS/Include/cmsis_gcc.h **** 
 377:Drivers/CMSIS/Include/cmsis_gcc.h **** /**
 378:Drivers/CMSIS/Include/cmsis_gcc.h ****   \brief   Get Priority Mask
 379:Drivers/CMSIS/Include/cmsis_gcc.h ****   \details Returns the current state of the priority mask bit from the Priority Mask Register.
 380:Drivers/CMSIS/Include/cmsis_gcc.h ****   \return               Priority Mask value
 381:Drivers/CMSIS/Include/cmsis_gcc.h ****  */
 382:Drivers/CMSIS/Include/cmsis_gcc.h **** __STATIC_FORCEINLINE uint32_t __get_PRIMASK(void)
 445              		.loc 2 382 31 view .LVU115
 446              	.LBB27:
 383:Drivers/CMSIS/Include/cmsis_gcc.h **** {
 384:Drivers/CMSIS/Include/cmsis_gcc.h ****   uint32_t result;
 447              		.loc 2 384 3 view .LVU116
 385:Drivers/CMSIS/Include/cmsis_gcc.h **** 
 386:Drivers/CMSIS/Include/cmsis_gcc.h ****   __ASM volatile ("MRS %0, primask" : "=r" (result) :: "memory");
 448              		.loc 2 386 3 view .LVU117
 449              		.syntax unified
 450              	@ 386 "Drivers/CMSIS/Include/cmsis_gcc.h" 1
 451 0188 EFF31088 		MRS r8, primask
 452              	@ 0 "" 2
 453              	.LVL24:
 387:Drivers/CMSIS/Include/cmsis_gcc.h ****   return(result);
 454              		.loc 2 387 3 view .LVU118
 455              		.loc 2 387 3 is_stmt 0 view .LVU119
 456              		.thumb
 457              		.syntax unified
 458              	.LBE27:
 459              	.LBE26:
 237:Drivers/STM32L1xx_HAL_Driver/Src/stm32l1xx_hal_flash_ramfunc.c ****     
 460              		.loc 1 237 5 is_stmt 1 view .LVU120
 461              	.LBB28:
 462              	.LBI28:
 140:Drivers/CMSIS/Include/cmsis_gcc.h **** {
 463              		.loc 2 140 27 view .LVU121
 464              	.LBB29:
 142:Drivers/CMSIS/Include/cmsis_gcc.h **** }
 465              		.loc 2 142 3 view .LVU122
 466              		.syntax unified
 467              	@ 142 "Drivers/CMSIS/Include/cmsis_gcc.h" 1
 468 018c 72B6     		cpsid i
 469              	@ 0 "" 2
 470              		.thumb
 471              		.syntax unified
 472              	.LBE29:
 473              	.LBE28:
 240:Drivers/STM32L1xx_HAL_Driver/Src/stm32l1xx_hal_flash_ramfunc.c ****     SET_BIT(FLASH->PECR, FLASH_PECR_FPRG);
 474              		.loc 1 240 5 view .LVU123
 475 018e 1A4B     		ldr	r3, .L41
 476 0190 5A68     		ldr	r2, [r3, #4]
ARM GAS  /tmp/ccJ0rBCo.s 			page 28


 477 0192 42F40042 		orr	r2, r2, #32768
 478 0196 5A60     		str	r2, [r3, #4]
 241:Drivers/STM32L1xx_HAL_Driver/Src/stm32l1xx_hal_flash_ramfunc.c ****     SET_BIT(FLASH->PECR, FLASH_PECR_PROG);
 479              		.loc 1 241 5 view .LVU124
 480 0198 5A68     		ldr	r2, [r3, #4]
 481 019a 42F48062 		orr	r2, r2, #1024
 482 019e 5A60     		str	r2, [r3, #4]
 242:Drivers/STM32L1xx_HAL_Driver/Src/stm32l1xx_hal_flash_ramfunc.c **** 
 483              		.loc 1 242 5 view .LVU125
 484 01a0 5A68     		ldr	r2, [r3, #4]
 485 01a2 42F00802 		orr	r2, r2, #8
 486 01a6 5A60     		str	r2, [r3, #4]
 245:Drivers/STM32L1xx_HAL_Driver/Src/stm32l1xx_hal_flash_ramfunc.c ****     {
 487              		.loc 1 245 5 view .LVU126
 227:Drivers/STM32L1xx_HAL_Driver/Src/stm32l1xx_hal_flash_ramfunc.c ****   HAL_StatusTypeDef status = HAL_OK;
 488              		.loc 1 227 12 is_stmt 0 view .LVU127
 489 01a8 0024     		movs	r4, #0
 490              	.LVL25:
 491              	.L34:
 245:Drivers/STM32L1xx_HAL_Driver/Src/stm32l1xx_hal_flash_ramfunc.c ****     {
 492              		.loc 1 245 10 is_stmt 1 view .LVU128
 493 01aa 1F2C     		cmp	r4, #31
 494 01ac 05D8     		bhi	.L39
 247:Drivers/STM32L1xx_HAL_Driver/Src/stm32l1xx_hal_flash_ramfunc.c ****       pBuffer1++;
 495              		.loc 1 247 7 view .LVU129
 247:Drivers/STM32L1xx_HAL_Driver/Src/stm32l1xx_hal_flash_ramfunc.c ****       pBuffer1++;
 496              		.loc 1 247 64 is_stmt 0 view .LVU130
 497 01ae 56F8043B 		ldr	r3, [r6], #4
 498              	.LVL26:
 247:Drivers/STM32L1xx_HAL_Driver/Src/stm32l1xx_hal_flash_ramfunc.c ****       pBuffer1++;
 499              		.loc 1 247 62 view .LVU131
 500 01b2 49F82430 		str	r3, [r9, r4, lsl #2]
 248:Drivers/STM32L1xx_HAL_Driver/Src/stm32l1xx_hal_flash_ramfunc.c ****       count ++;  
 501              		.loc 1 248 7 is_stmt 1 view .LVU132
 502              	.LVL27:
 249:Drivers/STM32L1xx_HAL_Driver/Src/stm32l1xx_hal_flash_ramfunc.c ****     }
 503              		.loc 1 249 7 view .LVU133
 249:Drivers/STM32L1xx_HAL_Driver/Src/stm32l1xx_hal_flash_ramfunc.c ****     }
 504              		.loc 1 249 13 is_stmt 0 view .LVU134
 505 01b6 0134     		adds	r4, r4, #1
 506              	.LVL28:
 249:Drivers/STM32L1xx_HAL_Driver/Src/stm32l1xx_hal_flash_ramfunc.c ****     }
 507              		.loc 1 249 13 view .LVU135
 508 01b8 F7E7     		b	.L34
 509              	.L39:
 253:Drivers/STM32L1xx_HAL_Driver/Src/stm32l1xx_hal_flash_ramfunc.c ****     while(count < 32U)
 510              		.loc 1 253 11 view .LVU136
 511 01ba 0021     		movs	r1, #0
 512              	.LVL29:
 513              	.L36:
 254:Drivers/STM32L1xx_HAL_Driver/Src/stm32l1xx_hal_flash_ramfunc.c ****     {
 514              		.loc 1 254 10 is_stmt 1 view .LVU137
 515 01bc 1F29     		cmp	r1, #31
 516 01be 05D8     		bhi	.L40
 256:Drivers/STM32L1xx_HAL_Driver/Src/stm32l1xx_hal_flash_ramfunc.c ****       pBuffer2++;
 517              		.loc 1 256 7 view .LVU138
 256:Drivers/STM32L1xx_HAL_Driver/Src/stm32l1xx_hal_flash_ramfunc.c ****       pBuffer2++;
ARM GAS  /tmp/ccJ0rBCo.s 			page 29


 518              		.loc 1 256 64 is_stmt 0 view .LVU139
 519 01c0 55F8043B 		ldr	r3, [r5], #4
 520              	.LVL30:
 256:Drivers/STM32L1xx_HAL_Driver/Src/stm32l1xx_hal_flash_ramfunc.c ****       pBuffer2++;
 521              		.loc 1 256 62 view .LVU140
 522 01c4 47F82130 		str	r3, [r7, r1, lsl #2]
 257:Drivers/STM32L1xx_HAL_Driver/Src/stm32l1xx_hal_flash_ramfunc.c ****       count ++;  
 523              		.loc 1 257 7 is_stmt 1 view .LVU141
 524              	.LVL31:
 258:Drivers/STM32L1xx_HAL_Driver/Src/stm32l1xx_hal_flash_ramfunc.c ****     }
 525              		.loc 1 258 7 view .LVU142
 258:Drivers/STM32L1xx_HAL_Driver/Src/stm32l1xx_hal_flash_ramfunc.c ****     }
 526              		.loc 1 258 13 is_stmt 0 view .LVU143
 527 01c8 0131     		adds	r1, r1, #1
 528              	.LVL32:
 258:Drivers/STM32L1xx_HAL_Driver/Src/stm32l1xx_hal_flash_ramfunc.c ****     }
 529              		.loc 1 258 13 view .LVU144
 530 01ca F7E7     		b	.L36
 531              	.L40:
 262:Drivers/STM32L1xx_HAL_Driver/Src/stm32l1xx_hal_flash_ramfunc.c ****     
 532              		.loc 1 262 5 is_stmt 1 view .LVU145
 262:Drivers/STM32L1xx_HAL_Driver/Src/stm32l1xx_hal_flash_ramfunc.c ****     
 533              		.loc 1 262 14 is_stmt 0 view .LVU146
 534 01cc 4CF25030 		movw	r0, #50000
 535 01d0 FFF74EFF 		bl	FLASHRAM_WaitForLastOperation
 536              	.LVL33:
 265:Drivers/STM32L1xx_HAL_Driver/Src/stm32l1xx_hal_flash_ramfunc.c ****     CLEAR_BIT(FLASH->PECR, FLASH_PECR_FPRG);
 537              		.loc 1 265 5 is_stmt 1 view .LVU147
 538 01d4 084B     		ldr	r3, .L41
 539 01d6 5A68     		ldr	r2, [r3, #4]
 540 01d8 22F00802 		bic	r2, r2, #8
 541 01dc 5A60     		str	r2, [r3, #4]
 266:Drivers/STM32L1xx_HAL_Driver/Src/stm32l1xx_hal_flash_ramfunc.c ****     CLEAR_BIT(FLASH->PECR, FLASH_PECR_PARALLBANK);
 542              		.loc 1 266 5 view .LVU148
 543 01de 5A68     		ldr	r2, [r3, #4]
 544 01e0 22F48062 		bic	r2, r2, #1024
 545 01e4 5A60     		str	r2, [r3, #4]
 267:Drivers/STM32L1xx_HAL_Driver/Src/stm32l1xx_hal_flash_ramfunc.c **** 
 546              		.loc 1 267 5 view .LVU149
 547 01e6 5A68     		ldr	r2, [r3, #4]
 548 01e8 22F40042 		bic	r2, r2, #32768
 549 01ec 5A60     		str	r2, [r3, #4]
 270:Drivers/STM32L1xx_HAL_Driver/Src/stm32l1xx_hal_flash_ramfunc.c ****   }
 550              		.loc 1 270 5 view .LVU150
 551              	.LVL34:
 552              	.LBB30:
 553              	.LBI30:
 388:Drivers/CMSIS/Include/cmsis_gcc.h **** }
 389:Drivers/CMSIS/Include/cmsis_gcc.h **** 
 390:Drivers/CMSIS/Include/cmsis_gcc.h **** 
 391:Drivers/CMSIS/Include/cmsis_gcc.h **** #if (defined (__ARM_FEATURE_CMSE ) && (__ARM_FEATURE_CMSE == 3))
 392:Drivers/CMSIS/Include/cmsis_gcc.h **** /**
 393:Drivers/CMSIS/Include/cmsis_gcc.h ****   \brief   Get Priority Mask (non-secure)
 394:Drivers/CMSIS/Include/cmsis_gcc.h ****   \details Returns the current state of the non-secure priority mask bit from the Priority Mask Reg
 395:Drivers/CMSIS/Include/cmsis_gcc.h ****   \return               Priority Mask value
 396:Drivers/CMSIS/Include/cmsis_gcc.h ****  */
 397:Drivers/CMSIS/Include/cmsis_gcc.h **** __STATIC_FORCEINLINE uint32_t __TZ_get_PRIMASK_NS(void)
ARM GAS  /tmp/ccJ0rBCo.s 			page 30


 398:Drivers/CMSIS/Include/cmsis_gcc.h **** {
 399:Drivers/CMSIS/Include/cmsis_gcc.h ****   uint32_t result;
 400:Drivers/CMSIS/Include/cmsis_gcc.h **** 
 401:Drivers/CMSIS/Include/cmsis_gcc.h ****   __ASM volatile ("MRS %0, primask_ns" : "=r" (result) :: "memory");
 402:Drivers/CMSIS/Include/cmsis_gcc.h ****   return(result);
 403:Drivers/CMSIS/Include/cmsis_gcc.h **** }
 404:Drivers/CMSIS/Include/cmsis_gcc.h **** #endif
 405:Drivers/CMSIS/Include/cmsis_gcc.h **** 
 406:Drivers/CMSIS/Include/cmsis_gcc.h **** 
 407:Drivers/CMSIS/Include/cmsis_gcc.h **** /**
 408:Drivers/CMSIS/Include/cmsis_gcc.h ****   \brief   Set Priority Mask
 409:Drivers/CMSIS/Include/cmsis_gcc.h ****   \details Assigns the given value to the Priority Mask Register.
 410:Drivers/CMSIS/Include/cmsis_gcc.h ****   \param [in]    priMask  Priority Mask
 411:Drivers/CMSIS/Include/cmsis_gcc.h ****  */
 412:Drivers/CMSIS/Include/cmsis_gcc.h **** __STATIC_FORCEINLINE void __set_PRIMASK(uint32_t priMask)
 554              		.loc 2 412 27 view .LVU151
 555              	.LBB31:
 413:Drivers/CMSIS/Include/cmsis_gcc.h **** {
 414:Drivers/CMSIS/Include/cmsis_gcc.h ****   __ASM volatile ("MSR primask, %0" : : "r" (priMask) : "memory");
 556              		.loc 2 414 3 view .LVU152
 557              		.syntax unified
 558              	@ 414 "Drivers/CMSIS/Include/cmsis_gcc.h" 1
 559 01ee 88F31088 		MSR primask, r8
 560              	@ 0 "" 2
 561              	.LVL35:
 562              		.thumb
 563              		.syntax unified
 564              	.L33:
 565              		.loc 2 414 3 is_stmt 0 view .LVU153
 566              	.LBE31:
 567              	.LBE30:
 274:Drivers/STM32L1xx_HAL_Driver/Src/stm32l1xx_hal_flash_ramfunc.c **** }
 568              		.loc 1 274 3 is_stmt 1 view .LVU154
 275:Drivers/STM32L1xx_HAL_Driver/Src/stm32l1xx_hal_flash_ramfunc.c **** #endif /* FLASH_PECR_PARALLBANK */
 569              		.loc 1 275 1 is_stmt 0 view .LVU155
 570 01f2 BDE8F883 		pop	{r3, r4, r5, r6, r7, r8, r9, pc}
 571              	.LVL36:
 572              	.L42:
 275:Drivers/STM32L1xx_HAL_Driver/Src/stm32l1xx_hal_flash_ramfunc.c **** #endif /* FLASH_PECR_PARALLBANK */
 573              		.loc 1 275 1 view .LVU156
 574 01f6 00BF     		.align	2
 575              	.L41:
 576 01f8 003C0240 		.word	1073888256
 577              		.cfi_endproc
 578              	.LFE75:
 580              		.align	1
 581              		.global	HAL_FLASHEx_HalfPageProgram
 582              		.syntax unified
 583              		.thumb
 584              		.thumb_func
 585              		.fpu softvfp
 587              	HAL_FLASHEx_HalfPageProgram:
 588              	.LVL37:
 589              	.LFB76:
 303:Drivers/STM32L1xx_HAL_Driver/Src/stm32l1xx_hal_flash_ramfunc.c ****   uint32_t primask_bit;
 590              		.loc 1 303 1 is_stmt 1 view -0
 591              		.cfi_startproc
ARM GAS  /tmp/ccJ0rBCo.s 			page 31


 592              		@ args = 0, pretend = 0, frame = 0
 593              		@ frame_needed = 0, uses_anonymous_args = 0
 303:Drivers/STM32L1xx_HAL_Driver/Src/stm32l1xx_hal_flash_ramfunc.c ****   uint32_t primask_bit;
 594              		.loc 1 303 1 is_stmt 0 view .LVU158
 595 01fc 70B5     		push	{r4, r5, r6, lr}
 596              	.LCFI3:
 597              		.cfi_def_cfa_offset 16
 598              		.cfi_offset 4, -16
 599              		.cfi_offset 5, -12
 600              		.cfi_offset 6, -8
 601              		.cfi_offset 14, -4
 602 01fe 0546     		mov	r5, r0
 603 0200 0C46     		mov	r4, r1
 304:Drivers/STM32L1xx_HAL_Driver/Src/stm32l1xx_hal_flash_ramfunc.c ****   uint32_t count = 0U; 
 604              		.loc 1 304 3 is_stmt 1 view .LVU159
 305:Drivers/STM32L1xx_HAL_Driver/Src/stm32l1xx_hal_flash_ramfunc.c ****   HAL_StatusTypeDef status = HAL_OK;
 605              		.loc 1 305 3 view .LVU160
 606              	.LVL38:
 306:Drivers/STM32L1xx_HAL_Driver/Src/stm32l1xx_hal_flash_ramfunc.c **** 
 607              		.loc 1 306 3 view .LVU161
 309:Drivers/STM32L1xx_HAL_Driver/Src/stm32l1xx_hal_flash_ramfunc.c ****   
 608              		.loc 1 309 3 view .LVU162
 309:Drivers/STM32L1xx_HAL_Driver/Src/stm32l1xx_hal_flash_ramfunc.c ****   
 609              		.loc 1 309 12 is_stmt 0 view .LVU163
 610 0202 4CF25030 		movw	r0, #50000
 611              	.LVL39:
 309:Drivers/STM32L1xx_HAL_Driver/Src/stm32l1xx_hal_flash_ramfunc.c ****   
 612              		.loc 1 309 12 view .LVU164
 613 0206 FFF733FF 		bl	FLASHRAM_WaitForLastOperation
 614              	.LVL40:
 311:Drivers/STM32L1xx_HAL_Driver/Src/stm32l1xx_hal_flash_ramfunc.c ****   {
 615              		.loc 1 311 3 is_stmt 1 view .LVU165
 311:Drivers/STM32L1xx_HAL_Driver/Src/stm32l1xx_hal_flash_ramfunc.c ****   {
 616              		.loc 1 311 5 is_stmt 0 view .LVU166
 617 020a 18BB     		cbnz	r0, .L44
 314:Drivers/STM32L1xx_HAL_Driver/Src/stm32l1xx_hal_flash_ramfunc.c ****     __disable_irq();
 618              		.loc 1 314 5 is_stmt 1 view .LVU167
 619              	.LBB32:
 620              	.LBI32:
 382:Drivers/CMSIS/Include/cmsis_gcc.h **** {
 621              		.loc 2 382 31 view .LVU168
 622              	.LBB33:
 384:Drivers/CMSIS/Include/cmsis_gcc.h **** 
 623              		.loc 2 384 3 view .LVU169
 386:Drivers/CMSIS/Include/cmsis_gcc.h ****   return(result);
 624              		.loc 2 386 3 view .LVU170
 625              		.syntax unified
 626              	@ 386 "Drivers/CMSIS/Include/cmsis_gcc.h" 1
 627 020c EFF31086 		MRS r6, primask
 628              	@ 0 "" 2
 629              	.LVL41:
 387:Drivers/CMSIS/Include/cmsis_gcc.h **** }
 630              		.loc 2 387 3 view .LVU171
 387:Drivers/CMSIS/Include/cmsis_gcc.h **** }
 631              		.loc 2 387 3 is_stmt 0 view .LVU172
 632              		.thumb
 633              		.syntax unified
ARM GAS  /tmp/ccJ0rBCo.s 			page 32


 634              	.LBE33:
 635              	.LBE32:
 315:Drivers/STM32L1xx_HAL_Driver/Src/stm32l1xx_hal_flash_ramfunc.c **** 
 636              		.loc 1 315 5 is_stmt 1 view .LVU173
 637              	.LBB34:
 638              	.LBI34:
 140:Drivers/CMSIS/Include/cmsis_gcc.h **** {
 639              		.loc 2 140 27 view .LVU174
 640              	.LBB35:
 142:Drivers/CMSIS/Include/cmsis_gcc.h **** }
 641              		.loc 2 142 3 view .LVU175
 642              		.syntax unified
 643              	@ 142 "Drivers/CMSIS/Include/cmsis_gcc.h" 1
 644 0210 72B6     		cpsid i
 645              	@ 0 "" 2
 646              		.thumb
 647              		.syntax unified
 648              	.LBE35:
 649              	.LBE34:
 318:Drivers/STM32L1xx_HAL_Driver/Src/stm32l1xx_hal_flash_ramfunc.c ****     SET_BIT(FLASH->PECR, FLASH_PECR_PROG);
 650              		.loc 1 318 5 view .LVU176
 651 0212 114B     		ldr	r3, .L49
 652 0214 5A68     		ldr	r2, [r3, #4]
 653 0216 42F48062 		orr	r2, r2, #1024
 654 021a 5A60     		str	r2, [r3, #4]
 319:Drivers/STM32L1xx_HAL_Driver/Src/stm32l1xx_hal_flash_ramfunc.c ****     
 655              		.loc 1 319 5 view .LVU177
 656 021c 5A68     		ldr	r2, [r3, #4]
 657 021e 42F00802 		orr	r2, r2, #8
 658 0222 5A60     		str	r2, [r3, #4]
 322:Drivers/STM32L1xx_HAL_Driver/Src/stm32l1xx_hal_flash_ramfunc.c ****     {
 659              		.loc 1 322 5 view .LVU178
 305:Drivers/STM32L1xx_HAL_Driver/Src/stm32l1xx_hal_flash_ramfunc.c ****   HAL_StatusTypeDef status = HAL_OK;
 660              		.loc 1 305 12 is_stmt 0 view .LVU179
 661 0224 0023     		movs	r3, #0
 662              	.LVL42:
 663              	.L45:
 322:Drivers/STM32L1xx_HAL_Driver/Src/stm32l1xx_hal_flash_ramfunc.c ****     {
 664              		.loc 1 322 10 is_stmt 1 view .LVU180
 665 0226 1F2B     		cmp	r3, #31
 666 0228 05D8     		bhi	.L48
 324:Drivers/STM32L1xx_HAL_Driver/Src/stm32l1xx_hal_flash_ramfunc.c ****       pBuffer++;
 667              		.loc 1 324 7 view .LVU181
 324:Drivers/STM32L1xx_HAL_Driver/Src/stm32l1xx_hal_flash_ramfunc.c ****       pBuffer++;
 668              		.loc 1 324 63 is_stmt 0 view .LVU182
 669 022a 54F8042B 		ldr	r2, [r4], #4
 670              	.LVL43:
 324:Drivers/STM32L1xx_HAL_Driver/Src/stm32l1xx_hal_flash_ramfunc.c ****       pBuffer++;
 671              		.loc 1 324 61 view .LVU183
 672 022e 45F82320 		str	r2, [r5, r3, lsl #2]
 325:Drivers/STM32L1xx_HAL_Driver/Src/stm32l1xx_hal_flash_ramfunc.c ****       count ++;  
 673              		.loc 1 325 7 is_stmt 1 view .LVU184
 674              	.LVL44:
 326:Drivers/STM32L1xx_HAL_Driver/Src/stm32l1xx_hal_flash_ramfunc.c ****     }
 675              		.loc 1 326 7 view .LVU185
 326:Drivers/STM32L1xx_HAL_Driver/Src/stm32l1xx_hal_flash_ramfunc.c ****     }
 676              		.loc 1 326 13 is_stmt 0 view .LVU186
ARM GAS  /tmp/ccJ0rBCo.s 			page 33


 677 0232 0133     		adds	r3, r3, #1
 678              	.LVL45:
 326:Drivers/STM32L1xx_HAL_Driver/Src/stm32l1xx_hal_flash_ramfunc.c ****     }
 679              		.loc 1 326 13 view .LVU187
 680 0234 F7E7     		b	.L45
 681              	.L48:
 330:Drivers/STM32L1xx_HAL_Driver/Src/stm32l1xx_hal_flash_ramfunc.c ****  
 682              		.loc 1 330 5 is_stmt 1 view .LVU188
 330:Drivers/STM32L1xx_HAL_Driver/Src/stm32l1xx_hal_flash_ramfunc.c ****  
 683              		.loc 1 330 14 is_stmt 0 view .LVU189
 684 0236 4CF25030 		movw	r0, #50000
 685 023a FFF719FF 		bl	FLASHRAM_WaitForLastOperation
 686              	.LVL46:
 333:Drivers/STM32L1xx_HAL_Driver/Src/stm32l1xx_hal_flash_ramfunc.c ****     CLEAR_BIT(FLASH->PECR, FLASH_PECR_FPRG);
 687              		.loc 1 333 5 is_stmt 1 view .LVU190
 688 023e 064B     		ldr	r3, .L49
 689 0240 5A68     		ldr	r2, [r3, #4]
 690 0242 22F00802 		bic	r2, r2, #8
 691 0246 5A60     		str	r2, [r3, #4]
 334:Drivers/STM32L1xx_HAL_Driver/Src/stm32l1xx_hal_flash_ramfunc.c **** 
 692              		.loc 1 334 5 view .LVU191
 693 0248 5A68     		ldr	r2, [r3, #4]
 694 024a 22F48062 		bic	r2, r2, #1024
 695 024e 5A60     		str	r2, [r3, #4]
 337:Drivers/STM32L1xx_HAL_Driver/Src/stm32l1xx_hal_flash_ramfunc.c ****   }
 696              		.loc 1 337 5 view .LVU192
 697              	.LVL47:
 698              	.LBB36:
 699              	.LBI36:
 412:Drivers/CMSIS/Include/cmsis_gcc.h **** {
 700              		.loc 2 412 27 view .LVU193
 701              	.LBB37:
 702              		.loc 2 414 3 view .LVU194
 703              		.syntax unified
 704              	@ 414 "Drivers/CMSIS/Include/cmsis_gcc.h" 1
 705 0250 86F31088 		MSR primask, r6
 706              	@ 0 "" 2
 707              	.LVL48:
 708              		.thumb
 709              		.syntax unified
 710              	.L44:
 711              		.loc 2 414 3 is_stmt 0 view .LVU195
 712              	.LBE37:
 713              	.LBE36:
 341:Drivers/STM32L1xx_HAL_Driver/Src/stm32l1xx_hal_flash_ramfunc.c **** }
 714              		.loc 1 341 3 is_stmt 1 view .LVU196
 342:Drivers/STM32L1xx_HAL_Driver/Src/stm32l1xx_hal_flash_ramfunc.c **** 
 715              		.loc 1 342 1 is_stmt 0 view .LVU197
 716 0254 70BD     		pop	{r4, r5, r6, pc}
 717              	.LVL49:
 718              	.L50:
 342:Drivers/STM32L1xx_HAL_Driver/Src/stm32l1xx_hal_flash_ramfunc.c **** 
 719              		.loc 1 342 1 view .LVU198
 720 0256 00BF     		.align	2
 721              	.L49:
 722 0258 003C0240 		.word	1073888256
 723              		.cfi_endproc
ARM GAS  /tmp/ccJ0rBCo.s 			page 34


 724              	.LFE76:
 726              		.align	1
 727              		.global	HAL_FLASHEx_GetError
 728              		.syntax unified
 729              		.thumb
 730              		.thumb_func
 731              		.fpu softvfp
 733              	HAL_FLASHEx_GetError:
 734              	.LVL50:
 735              	.LFB77:
 395:Drivers/STM32L1xx_HAL_Driver/Src/stm32l1xx_hal_flash_ramfunc.c ****   *Error = pFlash.ErrorCode;
 736              		.loc 1 395 1 is_stmt 1 view -0
 737              		.cfi_startproc
 738              		@ args = 0, pretend = 0, frame = 0
 739              		@ frame_needed = 0, uses_anonymous_args = 0
 740              		@ link register save eliminated.
 396:Drivers/STM32L1xx_HAL_Driver/Src/stm32l1xx_hal_flash_ramfunc.c ****   return HAL_OK;  
 741              		.loc 1 396 3 view .LVU200
 396:Drivers/STM32L1xx_HAL_Driver/Src/stm32l1xx_hal_flash_ramfunc.c ****   return HAL_OK;  
 742              		.loc 1 396 18 is_stmt 0 view .LVU201
 743 025c 024B     		ldr	r3, .L52
 744 025e 5B69     		ldr	r3, [r3, #20]
 396:Drivers/STM32L1xx_HAL_Driver/Src/stm32l1xx_hal_flash_ramfunc.c ****   return HAL_OK;  
 745              		.loc 1 396 10 view .LVU202
 746 0260 0360     		str	r3, [r0]
 397:Drivers/STM32L1xx_HAL_Driver/Src/stm32l1xx_hal_flash_ramfunc.c **** }
 747              		.loc 1 397 3 is_stmt 1 view .LVU203
 398:Drivers/STM32L1xx_HAL_Driver/Src/stm32l1xx_hal_flash_ramfunc.c **** 
 748              		.loc 1 398 1 is_stmt 0 view .LVU204
 749 0262 0020     		movs	r0, #0
 750              	.LVL51:
 398:Drivers/STM32L1xx_HAL_Driver/Src/stm32l1xx_hal_flash_ramfunc.c **** 
 751              		.loc 1 398 1 view .LVU205
 752 0264 7047     		bx	lr
 753              	.L53:
 754 0266 00BF     		.align	2
 755              	.L52:
 756 0268 00000000 		.word	pFlash
 757              		.cfi_endproc
 758              	.LFE77:
 760              		.align	1
 761              		.global	HAL_FLASHEx_DATAEEPROM_EraseDoubleWord
 762              		.syntax unified
 763              		.thumb
 764              		.thumb_func
 765              		.fpu softvfp
 767              	HAL_FLASHEx_DATAEEPROM_EraseDoubleWord:
 768              	.LVL52:
 769              	.LFB78:
 427:Drivers/STM32L1xx_HAL_Driver/Src/stm32l1xx_hal_flash_ramfunc.c ****   uint32_t primask_bit;
 770              		.loc 1 427 1 is_stmt 1 view -0
 771              		.cfi_startproc
 772              		@ args = 0, pretend = 0, frame = 0
 773              		@ frame_needed = 0, uses_anonymous_args = 0
 427:Drivers/STM32L1xx_HAL_Driver/Src/stm32l1xx_hal_flash_ramfunc.c ****   uint32_t primask_bit;
 774              		.loc 1 427 1 is_stmt 0 view .LVU207
 775 026c 70B5     		push	{r4, r5, r6, lr}
ARM GAS  /tmp/ccJ0rBCo.s 			page 35


 776              	.LCFI4:
 777              		.cfi_def_cfa_offset 16
 778              		.cfi_offset 4, -16
 779              		.cfi_offset 5, -12
 780              		.cfi_offset 6, -8
 781              		.cfi_offset 14, -4
 782 026e 0446     		mov	r4, r0
 428:Drivers/STM32L1xx_HAL_Driver/Src/stm32l1xx_hal_flash_ramfunc.c ****   HAL_StatusTypeDef status = HAL_OK;
 783              		.loc 1 428 3 is_stmt 1 view .LVU208
 429:Drivers/STM32L1xx_HAL_Driver/Src/stm32l1xx_hal_flash_ramfunc.c ****   
 784              		.loc 1 429 3 view .LVU209
 785              	.LVL53:
 432:Drivers/STM32L1xx_HAL_Driver/Src/stm32l1xx_hal_flash_ramfunc.c ****   
 786              		.loc 1 432 3 view .LVU210
 432:Drivers/STM32L1xx_HAL_Driver/Src/stm32l1xx_hal_flash_ramfunc.c ****   
 787              		.loc 1 432 12 is_stmt 0 view .LVU211
 788 0270 4CF25030 		movw	r0, #50000
 789              	.LVL54:
 432:Drivers/STM32L1xx_HAL_Driver/Src/stm32l1xx_hal_flash_ramfunc.c ****   
 790              		.loc 1 432 12 view .LVU212
 791 0274 FFF7FCFE 		bl	FLASHRAM_WaitForLastOperation
 792              	.LVL55:
 434:Drivers/STM32L1xx_HAL_Driver/Src/stm32l1xx_hal_flash_ramfunc.c ****   {
 793              		.loc 1 434 3 is_stmt 1 view .LVU213
 434:Drivers/STM32L1xx_HAL_Driver/Src/stm32l1xx_hal_flash_ramfunc.c ****   {
 794              		.loc 1 434 5 is_stmt 0 view .LVU214
 795 0278 00B1     		cbz	r0, .L57
 796              	.LVL56:
 797              	.L55:
 465:Drivers/STM32L1xx_HAL_Driver/Src/stm32l1xx_hal_flash_ramfunc.c **** }
 798              		.loc 1 465 3 is_stmt 1 view .LVU215
 466:Drivers/STM32L1xx_HAL_Driver/Src/stm32l1xx_hal_flash_ramfunc.c **** 
 799              		.loc 1 466 1 is_stmt 0 view .LVU216
 800 027a 70BD     		pop	{r4, r5, r6, pc}
 801              	.LVL57:
 802              	.L57:
 437:Drivers/STM32L1xx_HAL_Driver/Src/stm32l1xx_hal_flash_ramfunc.c ****     __disable_irq();
 803              		.loc 1 437 5 is_stmt 1 view .LVU217
 804              	.LBB38:
 805              	.LBI38:
 382:Drivers/CMSIS/Include/cmsis_gcc.h **** {
 806              		.loc 2 382 31 view .LVU218
 807              	.LBB39:
 384:Drivers/CMSIS/Include/cmsis_gcc.h **** 
 808              		.loc 2 384 3 view .LVU219
 386:Drivers/CMSIS/Include/cmsis_gcc.h ****   return(result);
 809              		.loc 2 386 3 view .LVU220
 810              		.syntax unified
 811              	@ 386 "Drivers/CMSIS/Include/cmsis_gcc.h" 1
 812 027c EFF31086 		MRS r6, primask
 813              	@ 0 "" 2
 814              	.LVL58:
 387:Drivers/CMSIS/Include/cmsis_gcc.h **** }
 815              		.loc 2 387 3 view .LVU221
 387:Drivers/CMSIS/Include/cmsis_gcc.h **** }
 816              		.loc 2 387 3 is_stmt 0 view .LVU222
 817              		.thumb
ARM GAS  /tmp/ccJ0rBCo.s 			page 36


 818              		.syntax unified
 819              	.LBE39:
 820              	.LBE38:
 438:Drivers/STM32L1xx_HAL_Driver/Src/stm32l1xx_hal_flash_ramfunc.c **** 
 821              		.loc 1 438 5 is_stmt 1 view .LVU223
 822              	.LBB40:
 823              	.LBI40:
 140:Drivers/CMSIS/Include/cmsis_gcc.h **** {
 824              		.loc 2 140 27 view .LVU224
 825              	.LBB41:
 142:Drivers/CMSIS/Include/cmsis_gcc.h **** }
 826              		.loc 2 142 3 view .LVU225
 827              		.syntax unified
 828              	@ 142 "Drivers/CMSIS/Include/cmsis_gcc.h" 1
 829 0280 72B6     		cpsid i
 830              	@ 0 "" 2
 831              		.thumb
 832              		.syntax unified
 833              	.LBE41:
 834              	.LBE40:
 442:Drivers/STM32L1xx_HAL_Driver/Src/stm32l1xx_hal_flash_ramfunc.c **** 
 835              		.loc 1 442 5 view .LVU226
 836 0282 0D4D     		ldr	r5, .L58
 837 0284 6B68     		ldr	r3, [r5, #4]
 838 0286 43F40073 		orr	r3, r3, #512
 839 028a 6B60     		str	r3, [r5, #4]
 445:Drivers/STM32L1xx_HAL_Driver/Src/stm32l1xx_hal_flash_ramfunc.c ****    
 840              		.loc 1 445 5 view .LVU227
 841 028c 6B68     		ldr	r3, [r5, #4]
 842 028e 43F01003 		orr	r3, r3, #16
 843 0292 6B60     		str	r3, [r5, #4]
 448:Drivers/STM32L1xx_HAL_Driver/Src/stm32l1xx_hal_flash_ramfunc.c ****     Address += 4U;
 844              		.loc 1 448 5 view .LVU228
 448:Drivers/STM32L1xx_HAL_Driver/Src/stm32l1xx_hal_flash_ramfunc.c ****     Address += 4U;
 845              		.loc 1 448 31 is_stmt 0 view .LVU229
 846 0294 0023     		movs	r3, #0
 847 0296 2360     		str	r3, [r4]
 449:Drivers/STM32L1xx_HAL_Driver/Src/stm32l1xx_hal_flash_ramfunc.c ****     *(__IO uint32_t *)Address = 0x00000000U;
 848              		.loc 1 449 5 is_stmt 1 view .LVU230
 849              	.LVL59:
 450:Drivers/STM32L1xx_HAL_Driver/Src/stm32l1xx_hal_flash_ramfunc.c ****    
 850              		.loc 1 450 5 view .LVU231
 450:Drivers/STM32L1xx_HAL_Driver/Src/stm32l1xx_hal_flash_ramfunc.c ****    
 851              		.loc 1 450 31 is_stmt 0 view .LVU232
 852 0298 6360     		str	r3, [r4, #4]
 453:Drivers/STM32L1xx_HAL_Driver/Src/stm32l1xx_hal_flash_ramfunc.c ****     
 853              		.loc 1 453 5 is_stmt 1 view .LVU233
 453:Drivers/STM32L1xx_HAL_Driver/Src/stm32l1xx_hal_flash_ramfunc.c ****     
 854              		.loc 1 453 14 is_stmt 0 view .LVU234
 855 029a 4CF25030 		movw	r0, #50000
 856 029e FFF7E7FE 		bl	FLASHRAM_WaitForLastOperation
 857              	.LVL60:
 456:Drivers/STM32L1xx_HAL_Driver/Src/stm32l1xx_hal_flash_ramfunc.c ****     CLEAR_BIT(FLASH->PECR, FLASH_PECR_DATA);
 858              		.loc 1 456 5 is_stmt 1 view .LVU235
 859 02a2 6B68     		ldr	r3, [r5, #4]
 860 02a4 23F40073 		bic	r3, r3, #512
 861 02a8 6B60     		str	r3, [r5, #4]
ARM GAS  /tmp/ccJ0rBCo.s 			page 37


 457:Drivers/STM32L1xx_HAL_Driver/Src/stm32l1xx_hal_flash_ramfunc.c **** 
 862              		.loc 1 457 5 view .LVU236
 863 02aa 6B68     		ldr	r3, [r5, #4]
 864 02ac 23F01003 		bic	r3, r3, #16
 865 02b0 6B60     		str	r3, [r5, #4]
 460:Drivers/STM32L1xx_HAL_Driver/Src/stm32l1xx_hal_flash_ramfunc.c ****  
 866              		.loc 1 460 5 view .LVU237
 867              	.LVL61:
 868              	.LBB42:
 869              	.LBI42:
 412:Drivers/CMSIS/Include/cmsis_gcc.h **** {
 870              		.loc 2 412 27 view .LVU238
 871              	.LBB43:
 872              		.loc 2 414 3 view .LVU239
 873              		.syntax unified
 874              	@ 414 "Drivers/CMSIS/Include/cmsis_gcc.h" 1
 875 02b2 86F31088 		MSR primask, r6
 876              	@ 0 "" 2
 415:Drivers/CMSIS/Include/cmsis_gcc.h **** }
 877              		.loc 2 415 1 is_stmt 0 view .LVU240
 878              		.thumb
 879              		.syntax unified
 880 02b6 E0E7     		b	.L55
 881              	.L59:
 882              		.align	2
 883              	.L58:
 884 02b8 003C0240 		.word	1073888256
 885              	.LBE43:
 886              	.LBE42:
 887              		.cfi_endproc
 888              	.LFE78:
 890              		.align	1
 891              		.global	HAL_FLASHEx_DATAEEPROM_ProgramDoubleWord
 892              		.syntax unified
 893              		.thumb
 894              		.thumb_func
 895              		.fpu softvfp
 897              	HAL_FLASHEx_DATAEEPROM_ProgramDoubleWord:
 898              	.LVL62:
 899              	.LFB79:
 487:Drivers/STM32L1xx_HAL_Driver/Src/stm32l1xx_hal_flash_ramfunc.c ****   uint32_t primask_bit;
 900              		.loc 1 487 1 is_stmt 1 view -0
 901              		.cfi_startproc
 902              		@ args = 0, pretend = 0, frame = 0
 903              		@ frame_needed = 0, uses_anonymous_args = 0
 487:Drivers/STM32L1xx_HAL_Driver/Src/stm32l1xx_hal_flash_ramfunc.c ****   uint32_t primask_bit;
 904              		.loc 1 487 1 is_stmt 0 view .LVU242
 905 02bc 2DE9F041 		push	{r4, r5, r6, r7, r8, lr}
 906              	.LCFI5:
 907              		.cfi_def_cfa_offset 24
 908              		.cfi_offset 4, -24
 909              		.cfi_offset 5, -20
 910              		.cfi_offset 6, -16
 911              		.cfi_offset 7, -12
 912              		.cfi_offset 8, -8
 913              		.cfi_offset 14, -4
 914 02c0 0746     		mov	r7, r0
ARM GAS  /tmp/ccJ0rBCo.s 			page 38


 915 02c2 1546     		mov	r5, r2
 916 02c4 1C46     		mov	r4, r3
 488:Drivers/STM32L1xx_HAL_Driver/Src/stm32l1xx_hal_flash_ramfunc.c ****   HAL_StatusTypeDef status = HAL_OK;
 917              		.loc 1 488 3 is_stmt 1 view .LVU243
 489:Drivers/STM32L1xx_HAL_Driver/Src/stm32l1xx_hal_flash_ramfunc.c **** 
 918              		.loc 1 489 3 view .LVU244
 919              	.LVL63:
 492:Drivers/STM32L1xx_HAL_Driver/Src/stm32l1xx_hal_flash_ramfunc.c ****   
 920              		.loc 1 492 3 view .LVU245
 492:Drivers/STM32L1xx_HAL_Driver/Src/stm32l1xx_hal_flash_ramfunc.c ****   
 921              		.loc 1 492 12 is_stmt 0 view .LVU246
 922 02c6 4CF25030 		movw	r0, #50000
 923              	.LVL64:
 492:Drivers/STM32L1xx_HAL_Driver/Src/stm32l1xx_hal_flash_ramfunc.c ****   
 924              		.loc 1 492 12 view .LVU247
 925 02ca FFF7D1FE 		bl	FLASHRAM_WaitForLastOperation
 926              	.LVL65:
 494:Drivers/STM32L1xx_HAL_Driver/Src/stm32l1xx_hal_flash_ramfunc.c ****   {
 927              		.loc 1 494 3 is_stmt 1 view .LVU248
 494:Drivers/STM32L1xx_HAL_Driver/Src/stm32l1xx_hal_flash_ramfunc.c ****   {
 928              		.loc 1 494 5 is_stmt 0 view .LVU249
 929 02ce 08B1     		cbz	r0, .L63
 930              	.LVL66:
 931              	.L61:
 521:Drivers/STM32L1xx_HAL_Driver/Src/stm32l1xx_hal_flash_ramfunc.c **** }
 932              		.loc 1 521 3 is_stmt 1 view .LVU250
 522:Drivers/STM32L1xx_HAL_Driver/Src/stm32l1xx_hal_flash_ramfunc.c **** 
 933              		.loc 1 522 1 is_stmt 0 view .LVU251
 934 02d0 BDE8F081 		pop	{r4, r5, r6, r7, r8, pc}
 935              	.LVL67:
 936              	.L63:
 497:Drivers/STM32L1xx_HAL_Driver/Src/stm32l1xx_hal_flash_ramfunc.c ****     __disable_irq();
 937              		.loc 1 497 5 is_stmt 1 view .LVU252
 938              	.LBB44:
 939              	.LBI44:
 382:Drivers/CMSIS/Include/cmsis_gcc.h **** {
 940              		.loc 2 382 31 view .LVU253
 941              	.LBB45:
 384:Drivers/CMSIS/Include/cmsis_gcc.h **** 
 942              		.loc 2 384 3 view .LVU254
 386:Drivers/CMSIS/Include/cmsis_gcc.h ****   return(result);
 943              		.loc 2 386 3 view .LVU255
 944              		.syntax unified
 945              	@ 386 "Drivers/CMSIS/Include/cmsis_gcc.h" 1
 946 02d4 EFF31088 		MRS r8, primask
 947              	@ 0 "" 2
 948              	.LVL68:
 387:Drivers/CMSIS/Include/cmsis_gcc.h **** }
 949              		.loc 2 387 3 view .LVU256
 387:Drivers/CMSIS/Include/cmsis_gcc.h **** }
 950              		.loc 2 387 3 is_stmt 0 view .LVU257
 951              		.thumb
 952              		.syntax unified
 953              	.LBE45:
 954              	.LBE44:
 498:Drivers/STM32L1xx_HAL_Driver/Src/stm32l1xx_hal_flash_ramfunc.c **** 
 955              		.loc 1 498 5 is_stmt 1 view .LVU258
ARM GAS  /tmp/ccJ0rBCo.s 			page 39


 956              	.LBB46:
 957              	.LBI46:
 140:Drivers/CMSIS/Include/cmsis_gcc.h **** {
 958              		.loc 2 140 27 view .LVU259
 959              	.LBB47:
 142:Drivers/CMSIS/Include/cmsis_gcc.h **** }
 960              		.loc 2 142 3 view .LVU260
 961              		.syntax unified
 962              	@ 142 "Drivers/CMSIS/Include/cmsis_gcc.h" 1
 963 02d8 72B6     		cpsid i
 964              	@ 0 "" 2
 965              		.thumb
 966              		.syntax unified
 967              	.LBE47:
 968              	.LBE46:
 501:Drivers/STM32L1xx_HAL_Driver/Src/stm32l1xx_hal_flash_ramfunc.c ****     SET_BIT(FLASH->PECR, FLASH_PECR_DATA);
 969              		.loc 1 501 5 view .LVU261
 970 02da 0D4E     		ldr	r6, .L64
 971 02dc 7368     		ldr	r3, [r6, #4]
 972 02de 43F48063 		orr	r3, r3, #1024
 973 02e2 7360     		str	r3, [r6, #4]
 502:Drivers/STM32L1xx_HAL_Driver/Src/stm32l1xx_hal_flash_ramfunc.c ****     
 974              		.loc 1 502 5 view .LVU262
 975 02e4 7368     		ldr	r3, [r6, #4]
 976 02e6 43F01003 		orr	r3, r3, #16
 977 02ea 7360     		str	r3, [r6, #4]
 505:Drivers/STM32L1xx_HAL_Driver/Src/stm32l1xx_hal_flash_ramfunc.c ****      Address += 4U;
 978              		.loc 1 505 6 view .LVU263
 505:Drivers/STM32L1xx_HAL_Driver/Src/stm32l1xx_hal_flash_ramfunc.c ****      Address += 4U;
 979              		.loc 1 505 32 is_stmt 0 view .LVU264
 980 02ec 3D60     		str	r5, [r7]
 506:Drivers/STM32L1xx_HAL_Driver/Src/stm32l1xx_hal_flash_ramfunc.c ****      *(__IO uint32_t *)Address = (uint32_t) (Data >> 32);
 981              		.loc 1 506 6 is_stmt 1 view .LVU265
 982              	.LVL69:
 507:Drivers/STM32L1xx_HAL_Driver/Src/stm32l1xx_hal_flash_ramfunc.c ****      
 983              		.loc 1 507 6 view .LVU266
 507:Drivers/STM32L1xx_HAL_Driver/Src/stm32l1xx_hal_flash_ramfunc.c ****      
 984              		.loc 1 507 32 is_stmt 0 view .LVU267
 985 02ee 7C60     		str	r4, [r7, #4]
 510:Drivers/STM32L1xx_HAL_Driver/Src/stm32l1xx_hal_flash_ramfunc.c ****     
 986              		.loc 1 510 5 is_stmt 1 view .LVU268
 510:Drivers/STM32L1xx_HAL_Driver/Src/stm32l1xx_hal_flash_ramfunc.c ****     
 987              		.loc 1 510 14 is_stmt 0 view .LVU269
 988 02f0 4CF25030 		movw	r0, #50000
 989 02f4 FFF7BCFE 		bl	FLASHRAM_WaitForLastOperation
 990              	.LVL70:
 513:Drivers/STM32L1xx_HAL_Driver/Src/stm32l1xx_hal_flash_ramfunc.c ****     CLEAR_BIT(FLASH->PECR, FLASH_PECR_DATA);     
 991              		.loc 1 513 5 is_stmt 1 view .LVU270
 992 02f8 7368     		ldr	r3, [r6, #4]
 993 02fa 23F48063 		bic	r3, r3, #1024
 994 02fe 7360     		str	r3, [r6, #4]
 514:Drivers/STM32L1xx_HAL_Driver/Src/stm32l1xx_hal_flash_ramfunc.c **** 
 995              		.loc 1 514 5 view .LVU271
 996 0300 7368     		ldr	r3, [r6, #4]
 997 0302 23F01003 		bic	r3, r3, #16
 998 0306 7360     		str	r3, [r6, #4]
 517:Drivers/STM32L1xx_HAL_Driver/Src/stm32l1xx_hal_flash_ramfunc.c ****   }
ARM GAS  /tmp/ccJ0rBCo.s 			page 40


 999              		.loc 1 517 5 view .LVU272
 1000              	.LVL71:
 1001              	.LBB48:
 1002              	.LBI48:
 412:Drivers/CMSIS/Include/cmsis_gcc.h **** {
 1003              		.loc 2 412 27 view .LVU273
 1004              	.LBB49:
 414:Drivers/CMSIS/Include/cmsis_gcc.h **** }
 1005              		.loc 2 414 3 view .LVU274
 1006              		.syntax unified
 1007              	@ 414 "Drivers/CMSIS/Include/cmsis_gcc.h" 1
 1008 0308 88F31088 		MSR primask, r8
 1009              	@ 0 "" 2
 1010              		.loc 2 415 1 is_stmt 0 view .LVU275
 1011              		.thumb
 1012              		.syntax unified
 1013 030c E0E7     		b	.L61
 1014              	.L65:
 1015 030e 00BF     		.align	2
 1016              	.L64:
 1017 0310 003C0240 		.word	1073888256
 1018              	.LBE49:
 1019              	.LBE48:
 1020              		.cfi_endproc
 1021              	.LFE79:
 1023              		.text
 1024              	.Letext0:
 1025              		.file 3 "/usr/lib/gcc/arm-none-eabi/9.2.1/include/stdint.h"
 1026              		.file 4 "Drivers/CMSIS/Include/core_cm3.h"
 1027              		.file 5 "Drivers/CMSIS/Device/ST/STM32L1xx/Include/system_stm32l1xx.h"
 1028              		.file 6 "Drivers/CMSIS/Device/ST/STM32L1xx/Include/stm32l152xe.h"
 1029              		.file 7 "Drivers/STM32L1xx_HAL_Driver/Inc/stm32l1xx_hal_def.h"
 1030              		.file 8 "Drivers/STM32L1xx_HAL_Driver/Inc/stm32l1xx_hal_flash.h"
 1031              		.file 9 "Drivers/STM32L1xx_HAL_Driver/Inc/stm32l1xx_hal.h"
ARM GAS  /tmp/ccJ0rBCo.s 			page 41

